(lp0
(lp1
I29
aI9
aI36
aI61
aI35
aI62
aa(lp2
I14
aI47
aI49
aI17
aI7
aI33
aa(lp3
I44
aI27
aI26
aI15
aI54
aI19
aa(lp4
I28
aI5
aI60
aI25
aI52
aI55
aa(lp5
I48
aI1
aI30
aI63
aI3
aI56
aa(lp6
I8
aI22
aI31
aI20
aI59
aI53
aa(lp7
I18
aI24
aI21
aI43
aI0
aI50
aa(lp8
I2
aI16
aI45
aI39
aI13
aI32
aa(lp9
I46
aI37
aI4
aI40
aI51
aI41
aa(lp10
I58
aI34
aI57
aI23
aI42
aI11
aI12
aI38
aI10
aI6
aa.