(lp0
(lp1
I543
aI1156
aI10325
aI9136
aI6235
aI6350
aI1838
aI1947
aI10222
aI1857
aI1600
aI9213
aI1350
aI3885
aI10566
aI1944
aI8157
aI5987
aI3667
aI5198
aI10375
aI7895
aI1248
aI11058
aI178
aI3750
aI3087
aI4344
aI4709
aI3285
aI9704
aI7324
aI953
aI4887
aI1065
aI1655
aI2063
aI3983
aI11288
aI1053
aI1270
aI1699
aI5105
aI1530
aI2033
aI4628
aI166
aI1691
aI617
aI4566
aI5970
aI6891
aI9848
aI11107
aI2806
aI1888
aI5866
aI3237
aI738
aI7325
aI1531
aI2494
aI3
aI8432
aI10903
aI2955
aI6805
aI9916
aI460
aI9162
aI2481
aI9093
aI10128
aI2086
aI511
aI5703
aI4013
aI2703
aI2096
aI1906
aI4177
aI3726
aI10581
aI1528
aI406
aI6877
aI7321
aI1038
aI8667
aI10525
aI10837
aI4676
aI11055
aI9331
aI11108
aI5152
aI1110
aI684
aI807
aI4161
aI6116
aI2146
aI159
aI4890
aI2622
aI10319
aI2463
aI7852
aI133
aI7371
aI10112
aI11113
aI7262
aI7519
aI9897
aI3336
aI1447
aI5587
aI4653
aI4237
aI4235
aI7820
aI8021
aI3268
aI8197
aI11094
aI1313
aI223
aI10252
aI10498
aI3975
aI16
aI4706
aI10784
aI11037
aI299
aI9280
aI2856
aI747
aI2520
aI2330
aI1700
aI10471
aI304
aI8833
aI10631
aI5980
aI932
aI1135
aI7822
aI914
aI6021
aI9956
aI10785
aI8465
aI893
aI7071
aI334
aI1357
aI7072
aI10873
aI8542
aI8669
aI2314
aI2446
aI9675
aI3767
aI7972
aI6020
aI9283
aI8562
aI3646
aI9189
aI2786
aI4495
aI5952
aI719
aI3444
aI649
aI5988
aI6114
aI4481
aI10056
aI1221
aI7129
aI3933
aI3704
aI4242
aI7471
aI5585
aI11224
aI979
aI89
aI3843
aI5508
aI3391
aI4927
aI10876
aI10979
aI8994
aI10005
aI9186
aI518
aI101
aI3689
aI1803
aI499
aI10396
aI6908
aI3088
aI10549
aI9762
aI935
aI7888
aI1103
aI3925
aI7627
aI8737
aI6875
aI7487
aI4215
aI10386
aI11090
aI5974
aI8027
aI9927
aI4872
aI1060
aI10706
aI5401
aI6231
aI1830
aI5851
aI8087
aI10446
aI4223
aI9569
aI1452
aI7845
aI6820
aI2948
aI2661
aI35
aI869
aI11302
aI1590
aI9373
aI4157
aI2014
aI9030
aI128
aI11065
aI1360
aI6970
aI310
aI10411
aI4396
aI4586
aI7834
aI3845
aI7586
aI403
aI717
aI152
aI2249
aI10901
aI5736
aI11416
aI6814
aI10786
aI2805
aI786
aI7886
aI515
aI8449
aI10031
aI353
aI6927
aI2204
aI3100
aI6353
aI11027
aI8753
aI1516
aI7722
aI8858
aI2034
aI1500
aI4020
aI8769
aI3872
aI7588
aI9736
aI1970
aI10685
aI4128
aI7636
aI3679
aI3337
aI2439
aI11405
aI8143
aI2691
aI9379
aI737
aI7934
aI9585
aI7235
aI2701
aI2539
aI5694
aI2280
aI943
aI6450
aI4006
aI559
aI9510
aI7894
aI9015
aI6217
aI6561
aI6290
aI7292
aI8203
aI6462
aI9420
aI1547
aI7863
aI9228
aI7258
aI4900
aI9892
aI10405
aI8822
aI3645
aI5459
aI11341
aI6916
aI1566
aI5775
aI548
aI8046
aI2548
aI2302
aI9567
aI3144
aI11210
aI6584
aI6371
aI955
aI5210
aI2161
aI7523
aI4692
aI9739
aI6539
aI6912
aI9201
aI5033
aI10231
aI7553
aI4448
aI11231
aI4939
aI7510
aI2686
aI5334
aI7874
aI6275
aI3219
aI3729
aI8437
aI5849
aI2410
aI10773
aI6137
aI10691
aI6313
aI2530
aI2324
aI4144
aI7920
aI1007
aI2909
aI9149
aI1623
aI2778
aI8443
aI4189
aI4083
aI7243
aI900
aI743
aI6919
aI8210
aI6629
aI4917
aI9009
aI4232
aI10553
aI2651
aI258
aI10373
aI4990
aI8116
aI9677
aI5828
aI4658
aI4635
aI9176
aI8282
aI5531
aI5500
aI6749
aI3005
aI4240
aI7635
aI6712
aI5108
aI4696
aI9674
aI7436
aI9408
aI2286
aI8451
aI6768
aI11414
aI1981
aI7376
aI1416
aI11251
aI9027
aI184
aI196
aI2566
aI9439
aI1826
aI1469
aI4568
aI9300
aI8354
aI9100
aI5562
aI10233
aI3950
aI5058
aI9407
aI10663
aI4097
aI1076
aI10992
aI1767
aI698
aI11069
aI8686
aI5618
aI10073
aI3734
aI10155
aI8190
aI10036
aI2816
aI11388
aI3384
aI1160
aI5709
aI135
aI6670
aI3596
aI8583
aI5021
aI10612
aI2592
aI6606
aI11099
aI4282
aI8487
aI3181
aI7110
aI2008
aI10965
aI7465
aI8878
aI10709
aI8928
aI1274
aI7047
aI5317
aI6726
aI9714
aI3346
aI7122
aI7017
aI5087
aI6963
aI4719
aI994
aI9593
aI3999
aI3276
aI10387
aI3053
aI632
aI11132
aI7195
aI3848
aI6530
aI9899
aI470
aI8917
aI11214
aI10486
aI8587
aI6309
aI8114
aI11057
aI1291
aI708
aI5715
aI3117
aI10193
aI6013
aI6918
aI7589
aI4637
aI10806
aI8423
aI4559
aI1242
aI7286
aI4287
aI10624
aI5513
aI8219
aI1278
aI111
aI2227
aI3621
aI7282
aI7126
aI4226
aI3065
aI758
aI5349
aI2550
aI10263
aI7145
aI7178
aI1679
aI8433
aI6969
aI7236
aI9168
aI5807
aI1927
aI11181
aI3620
aI4562
aI540
aI7836
aI6247
aI2652
aI8216
aI195
aI4924
aI7759
aI7221
aI9039
aI7892
aI10652
aI5178
aI5136
aI369
aI5834
aI2753
aI6946
aI9528
aI862
aI8158
aI9932
aI7249
aI5539
aI8292
aI4595
aI9638
aI2060
aI5149
aI10836
aI10937
aI11182
aI4432
aI7811
aI10409
aI10575
aI9364
aI397
aI937
aI2501
aI3097
aI6201
aI11260
aI7458
aI10484
aI1490
aI3958
aI7514
aI10218
aI10975
aI647
aI1075
aI10660
aI1366
aI8556
aI2970
aI9367
aI2475
aI888
aI2775
aI6365
aI6905
aI11368
aI7060
aI2051
aI2940
aI2358
aI7155
aI10678
aI1956
aI10833
aI8000
aI2783
aI10543
aI10245
aI7208
aI7115
aI1920
aI535
aI2263
aI9486
aI599
aI5067
aI11291
aI5000
aI1816
aI2743
aI6045
aI1413
aI4316
aI5756
aI4764
aI8488
aI7633
aI3541
aI5574
aI8159
aI4005
aI3463
aI9474
aI155
aI1209
aI3255
aI338
aI173
aI3325
aI3575
aI11249
aI7159
aI3996
aI9328
aI6734
aI6806
aI5366
aI3226
aI7192
aI2860
aI5068
aI8780
aI9319
aI6488
aI4336
aI4560
aI5481
aI997
aI6318
aI10601
aI316
aI8586
aI2612
aI6144
aI5153
aI2787
aI631
aI8135
aI9348
aI2229
aI7981
aI8426
aI3356
aI8268
aI4500
aI9948
aI5314
aI4906
aI6180
aI2172
aI7880
aI4938
aI7923
aI9321
aI10029
aI9658
aI4503
aI9426
aI5816
aI1820
aI3673
aI7039
aI6657
aI2551
aI11081
aI2233
aI229
aI8606
aI2401
aI8330
aI1006
aI815
aI311
aI1682
aI5191
aI298
aI10897
aI5114
aI2015
aI7824
aI11150
aI10456
aI2423
aI10744
aI10025
aI4259
aI10599
aI2142
aI11289
aI2465
aI7607
aI6187
aI2692
aI4703
aI10034
aI4984
aI8373
aI5473
aI5874
aI2065
aI6204
aI2046
aI5277
aI852
aI2679
aI9830
aI3433
aI9304
aI5622
aI7497
aI4972
aI3148
aI2206
aI9187
aI3648
aI1422
aI4416
aI9497
aI10469
aI1703
aI584
aI4436
aI10032
aI3562
aI3462
aI4206
aI5596
aI3964
aI8480
aI8713
aI5857
aI4662
aI7764
aI5846
aI1664
aI2593
aI5893
aI10053
aI1251
aI10812
aI10436
aI36
aI4969
aI8689
aI8507
aI11050
aI6622
aI10922
aI615
aI2941
aI9001
aI3546
aI3330
aI2070
aI5925
aI9091
aI3700
aI4233
aI6182
aI10623
aI384
aI8774
aI4341
aI11301
aI10787
aI2436
aI11263
aI6100
aI9036
aI1046
aI2960
aI4510
aI1454
aI9964
aI7675
aI7457
aI4166
aI6688
aI8058
aI442
aI1406
aI5398
aI3563
aI6276
aI4269
aI2064
aI47
aI9043
aI3702
aI10403
aI8089
aI9713
aI8382
aI6176
aI8611
aI11102
aI6129
aI8549
aI3796
aI3772
aI2113
aI4260
aI7311
aI1482
aI8067
aI2132
aI1588
aI11160
aI10049
aI1797
aI9879
aI7996
aI11059
aI10092
aI9038
aI7619
aI1238
aI1952
aI5579
aI2385
aI11091
aI5827
aI2111
aI5997
aI3377
aI9562
aI10358
aI2556
aI7076
aI3495
aI10039
aI8013
aI4604
aI8072
aI6378
aI11035
aI6721
aI2980
aI7622
aI4929
aI9005
aI4531
aI4231
aI2025
aI7982
aI7090
aI4561
aI6379
aI6616
aI5716
aI830
aI6948
aI9643
aI7900
aI4710
aI4202
aI6783
aI6491
aI6294
aI5034
aI4501
aI9102
aI9689
aI863
aI5580
aI2744
aI1171
aI9944
aI6467
aI1346
aI796
aI7176
aI1385
aI9685
aI7086
aI3589
aI11343
aI436
aI8784
aI6381
aI700
aI4954
aI7736
aI146
aI4431
aI1787
aI9967
aI3586
aI4745
aI5142
aI9718
aI11278
aI6648
aI6286
aI6854
aI5150
aI2748
aI1765
aI1362
aI7245
aI9802
aI4207
aI6469
aI1675
aI3141
aI7902
aI3389
aI9729
aI9365
aI2866
aI3601
aI267
aI6533
aI100
aI9770
aI6667
aI678
aI4886
aI3395
aI1365
aI125
aI5635
aI2300
aI6689
aI2367
aI5312
aI10630
aI7382
aI7661
aI10565
aI1652
aI7670
aI5740
aI3208
aI2339
aI5482
aI9814
aI220
aI10838
aI10705
aI9114
aI3883
aI8700
aI9728
aI7839
aI6710
aI8358
aI9530
aI2342
aI8919
aI7994
aI9659
aI8853
aI6571
aI9912
aI7974
aI9723
aI9002
aI1218
aI8561
aI4163
aI3977
aI1443
aI976
aI7142
aI9667
aI1553
aI3378
aI2010
aI4869
aI2160
aI7163
aI3136
aI2202
aI10502
aI10125
aI2992
aI2808
aI1922
aI11265
aI6892
aI10700
aI144
aI7978
aI2554
aI8849
aI3421
aI6718
aI7134
aI5994
aI7638
aI1419
aI5576
aI6041
aI3056
aI10598
aI5770
aI2268
aI6028
aI11056
aI8873
aI9013
aI1903
aI4054
aI108
aI3856
aI8869
aI6870
aI3002
aI2498
aI6459
aI6913
aI7016
aI8584
aI3752
aI1196
aI1324
aI9131
aI9405
aI9900
aI3029
aI2140
aI5783
aI6043
aI6333
aI6625
aI6943
aI1987
aI11283
aI6086
aI10044
aI7668
aI11141
aI5887
aI7351
aI9499
aI448
aI10798
aI7693
aI70
aI9665
aI2588
aI9222
aI1602
aI343
aI7031
aI6966
aI8566
aI6334
aI5950
aI8989
aI1786
aI8011
aI4625
aI305
aI1417
aI3955
aI3790
aI2727
aI8835
aI3368
aI10094
aI19
aI7861
aI2515
aI10939
aI2457
aI9607
aI9165
aI6149
aI5839
aI1716
aI1047
aI6767
aI1042
aI810
aI6788
aI10259
aI7572
aI8559
aI5999
aI8546
aI9004
aI4743
aI9025
aI7680
aa(lp2
I9305
aI3684
aI6314
aI7502
aI834
aI7799
aI8907
aI10062
aI3690
aI315
aI8523
aI10140
aI10380
aI4504
aI4407
aI4261
aI539
aI8956
aI4998
aI8745
aI2370
aI6229
aI2128
aI8456
aI11360
aI495
aI9620
aI10340
aI10776
aI1729
aI7540
aI948
aI9040
aI1611
aI4905
aI8484
aI129
aI9943
aI10394
aI3501
aI7887
aI4509
aI7427
aI5423
aI10244
aI385
aI4895
aI7231
aI3847
aI5047
aI2668
aI3039
aI3023
aI63
aI5435
aI7332
aI8322
aI2544
aI2887
aI295
aI8475
aI1694
aI9079
aI11205
aI9244
aI7026
aI10058
aI3195
aI4039
aI8130
aI3198
aI370
aI5020
aI5478
aI805
aI10765
aI4958
aI11309
aI4689
aI6567
aI8431
aI9104
aI3948
aI4519
aI3813
aI8239
aI1639
aI395
aI6588
aI10157
aI17
aI10611
aI4086
aI9254
aI2688
aI9478
aI9999
aI4581
aI2186
aI8479
aI3787
aI4119
aI7460
aI7654
aI5410
aI10000
aI7408
aI7807
aI761
aI5781
aI1039
aI9983
aI2166
aI20
aI4529
aI5432
aI10069
aI9212
aI9624
aI8691
aI10033
aI11264
aI8126
aI347
aI11191
aI9987
aI4208
aI1643
aI5293
aI3021
aI4956
aI3197
aI497
aI1106
aI8658
aI6101
aI6863
aI6090
aI10704
aI10540
aI694
aI11398
aI9984
aI5080
aI4010
aI3686
aI5185
aI850
aI8273
aI7884
aI1811
aI764
aI2811
aI7714
aI5959
aI630
aI10145
aI5644
aI8319
aI4801
aI11114
aI3829
aI2739
aI164
aI4028
aI11148
aI6984
aI5133
aI4591
aI11270
aI6981
aI7117
aI1647
aI4213
aI10239
aI2223
aI5205
aI11272
aI658
aI7578
aI4686
aI5571
aI6958
aI9988
aI7274
aI4326
aI10332
aI2242
aI6448
aI9053
aI11033
aI2118
aI2542
aI3612
aI5041
aI7967
aI8265
aI6902
aI10667
aI194
aI2133
aI2526
aI3746
aI7283
aI1109
aI8868
aI6549
aI3530
aI6168
aI10712
aI2456
aI5739
aI9616
aI9239
aI8672
aI2915
aI701
aI4828
aI7205
aI5777
aI8231
aI8803
aI1165
aI10335
aI4533
aI7164
aI7392
aI7180
aI10452
aI4222
aI5535
aI2568
aI9404
aI4265
aI2656
aI2776
aI3494
aI4734
aI4517
aI2173
aI10129
aI5612
aI2801
aI1964
aI3256
aI4217
aI8520
aI3061
aI1868
aI10771
aI7168
aI11031
aI633
aI1314
aI3291
aI4355
aI2770
aI10523
aI9335
aI8552
aI1724
aI7749
aI7320
aI5199
aI4952
aI10620
aI9914
aI8275
aI10860
aI1152
aI5363
aI5731
aI4285
aI7202
aI11332
aI372
aI7954
aI5206
aI1340
aI10782
aI5725
aI8482
aI6926
aI2559
aI4490
aI9340
aI6213
aI1854
aI6679
aI2824
aI11177
aI1439
aI8930
aI4162
aI10944
aI2562
aI7686
aI4460
aI8860
aI7612
aI6032
aI6524
aI6307
aI1498
aI9520
aI6886
aI219
aI5647
aI75
aI7683
aI5438
aI2798
aI5653
aI6521
aI3385
aI2194
aI3280
aI8296
aI5124
aI10994
aI9588
aI7429
aI3491
aI1456
aI787
aI3104
aI5445
aI2618
aI8744
aI6390
aI4254
aI8491
aI735
aI4875
aI9697
aI5009
aI7961
aI1281
aI9268
aI113
aI4980
aI901
aI7124
aI7118
aI7254
aI7647
aI7022
aI9388
aI7881
aI7575
aI8047
aI39
aI9775
aI8178
aI8550
aI6366
aI5735
aI9523
aI3956
aI1068
aI467
aI2323
aI877
aI2600
aI6145
aI3533
aI6452
aI10816
aI1560
aI24
aI5543
aI10457
aI6882
aI3791
aI2756
aI6130
aI3698
aI8982
aI6589
aI3455
aI7716
aI3943
aI3152
aI1082
aI930
aI7097
aI424
aI9774
aI3497
aI9542
aI7475
aI4552
aI3484
aI10737
aI794
aI5292
aI8284
aI612
aI3343
aI2982
aI10236
aI5070
aI5675
aI107
aI9545
aI5631
aI4073
aI9771
aI3825
aI8428
aI170
aI9428
aI2768
aI10636
aI8313
aI5795
aI8659
aI3826
aI3742
aI5457
aI5195
aI3302
aI6649
aI2891
aI7641
aI6850
aI5507
aI5855
aI308
aI1563
aI6665
aI7036
aI846
aI7858
aI7281
aI3062
aI11253
aI9619
aI5430
aI6795
aI148
aI6720
aI8656
aI4280
aI3708
aI4451
aI11255
aI5183
aI10728
aI1115
aI6904
aI4912
aI1863
aI8820
aI2244
aI10163
aI582
aI4395
aI7489
aI4378
aI5403
aI9885
aI9263
aI8325
aI1429
aI6280
aI11137
aI4772
aI6434
aI8697
aI11087
aI3531
aI8847
aI9751
aI1731
aI3908
aI2380
aI3167
aI3982
aI3003
aI2931
aI11028
aI4965
aI8223
aI10733
aI1654
aI245
aI8311
aI7363
aI4778
aI77
aI5645
aI4804
aI8127
aI6240
aI3512
aI2275
aI6197
aI2394
aI954
aI2947
aI3013
aI9592
aI7312
aI8105
aI65
aI10468
aI9716
aI1933
aI1931
aI1768
aI2451
aI10563
aI4796
aI7946
aI5378
aI4212
aI11077
aI4583
aI6735
aI5793
aI7253
aI2486
aI1092
aI3804
aI1435
aI2963
aI4564
aI3926
aI2987
aI5462
aI1504
aI668
aI4823
aI7113
aI10717
aI9271
aI1552
aI1610
aI3496
aI8103
aI1195
aI3460
aI4267
aI2772
aI2168
aI1898
aI3556
aI9349
aI9082
aI1428
aI8136
aI10162
aI7569
aI8973
aI10150
aI4974
aI7515
aI9394
aI4322
aI3184
aI9308
aI4474
aI788
aI10200
aI8529
aI1444
aI6846
aI10455
aI2930
aI6166
aI3247
aI6747
aI6108
aI8663
aI7745
aI745
aI4996
aI9062
aI2958
aI9371
aI10059
aI2918
aI4493
aI10935
aI10177
aI4546
aI10400
aI6983
aI8983
aI10729
aI5350
aI3579
aI9204
aI290
aI865
aI2669
aI3382
aI1213
aI8812
aI4304
aI9986
aI1845
aI6959
aI9805
aI854
aI8285
aI4523
aI7058
aI5404
aI7890
aI2415
aI3862
aI9450
aI1402
aI11240
aI9293
aI7463
aI10910
aI7728
aI5621
aI4824
aI1556
aI5
aI10726
aI5271
aI9614
aI2352
aI332
aI9687
aI6801
aI3949
aI1946
aI1734
aI5646
aI9595
aI8107
aI10019
aI2366
aI6617
aI762
aI5518
aI3119
aI5493
aI10226
aI10754
aI6
aI6067
aI6979
aI8070
aI655
aI7953
aI3078
aI6645
aI11038
aI7707
aI3992
aI10803
aI8952
aI5992
aI4035
aI11082
aI10134
aI1641
aI8151
aI1719
aI1576
aI9375
aI9306
aI1311
aI10426
aI9384
aI3887
aI3617
aI10950
aI10478
aI10205
aI5862
aI9726
aI1835
aI6885
aI5471
aI7645
aI7846
aI5469
aI5620
aI7216
aI6154
aI8160
aI6038
aI9202
aI10959
aI8564
aI4767
aI5850
aI2384
aI939
aI10035
aI7577
aI8184
aI5630
aI4949
aI3357
aI5359
aI211
aI9392
aI7826
aI9041
aI3881
aI6499
aI6558
aI7041
aI2383
aI8376
aI7583
aI1320
aI11013
aI477
aI323
aI4659
aI5449
aI7040
aI10224
aI7825
aI6504
aI4880
aI10299
aI11095
aI2788
aI10867
aI3793
aI2846
aI3954
aI1867
aI5968
aI2663
aI7690
aI263
aI11257
aI3269
aI1153
aI3724
aI4094
aI7748
aI4724
aI4023
aI10237
aI8573
aI6115
aI563
aI10096
aI8638
aI41
aI2433
aI4457
aI396
aI309
aI3069
aI10434
aI6811
aI9784
aI163
aI3281
aI1471
aI8943
aI10827
aI1579
aI11340
aI9433
aI4717
aI3830
aI884
aI10861
aI3691
aI801
aI6440
aI9452
aI7372
aI9664
aI5184
aI1790
aI973
aI9443
aI1411
aI6737
aI2036
aI10366
aI5225
aI2145
aI5524
aI10562
aI2510
aI8855
aI10011
aI2376
aI5766
aI10925
aI3719
aI10864
aI8084
aI7947
aI10811
aI8115
aI7333
aI4109
aI740
aI8176
aI8785
aI5676
aI6618
aI9470
aI9937
aI4444
aI5800
aI1633
aI4091
aI5890
aI919
aI1100
aI7729
aI2726
aI922
aI8709
aI4776
aI6455
aI1521
aI986
aI2850
aI9682
aI10466
aI5052
aI1554
aI5743
aI9350
aI92
aI5024
aI2966
aI1395
aI138
aI8647
aI6172
aI583
aI6055
aI2518
aI3571
aI5918
aI2878
aI5759
aI4071
aI1743
aI11162
aI9133
aI9992
aI8813
aI6283
aI8400
aI2312
aI6704
aI878
aI11190
aI879
aI6809
aI10977
aI10357
aI3091
aI6547
aI4469
aI9382
aI3548
aI82
aI11110
aI3118
aI9663
aI8467
aI375
aI6369
aI239
aI7369
aI232
aI5837
aI1478
aI5619
aI9370
aI651
aI6577
aI3209
aI1149
aI6105
aI1660
aI8992
aI1917
aI1467
aI3797
aI3877
aI3125
aI1343
aI10689
aI8981
aI4214
aI3759
aI4640
aI5266
aI6253
aI11259
aI11158
aI1665
aI2492
aI11066
aI8636
aI1796
aI2409
aI7186
aI3376
aI9255
aI168
aI2675
aI10919
aI5597
aI2152
aI2032
aI4526
aI4802
aI4857
aI6812
aI4982
aI57
aI11030
aI9265
aI8140
aI6992
aI8954
aI9555
aI3738
aI10909
aI9000
aI8393
aI7608
aI3535
aI3138
aI2569
aI11195
aI1615
aI4673
aI5934
aI2090
aI3329
aI2789
aI2294
aI11403
aI8580
aI10731
aI1608
aI11373
aI7219
aI9078
aI2822
aI6485
aI10509
aI10844
aI10048
aI8941
aI2291
aI4537
aI4246
aI9749
aI894
aI8565
aI10817
aI4154
aI8845
aI4793
aI9825
aI5564
aI809
aI4646
aI3030
aI5360
aI1595
aI1937
aI2598
aI723
aI2766
aI1692
aI4669
aI7341
aI2942
aI7089
aI7995
aI9868
aI9538
aI1945
aI2524
aI5810
aI7156
aI9826
aI2724
aI6695
aI2802
aI9732
aI279
aI8882
aI8317
aI10215
aI5022
aI3004
aI8522
aI11310
aI732
aI3917
aI11331
aI9776
aI4656
aI8043
aI2259
aI1755
aI3419
aI2346
aI5610
aI4160
aI11346
aI2570
aI7173
aI3393
aI327
aI5007
aI9969
aI1586
aI6232
aI9224
aI9444
aI10555
aI6026
aI9812
aI9797
aI10391
aI7780
aI7829
aI3745
aI4048
aI6542
aI3706
aI3052
aI687
aI8722
aI5657
aI1014
aI6947
aI10915
aI10274
aI8563
aI835
aI6647
aI7209
aI4309
aI11246
aI404
aI4079
aI10536
aI6486
aI3770
aI5604
aI7696
aI4695
aI2602
aI61
aI10144
aI7536
aI9994
aI11025
aI2372
aI7549
aI9229
aI4943
aI8387
aI3095
aI5720
aI10541
aI7149
aI4584
aI8863
aI2257
aI6131
aI1805
aI86
aI3472
aI7025
aI8655
aI9209
aI2066
aI9414
aI3027
aI1892
aI8603
aI9048
aI10499
aI3536
aI393
aI8048
aI7796
aI2029
aI577
aI5282
aI1400
aI6127
aI5936
aI503
aI5723
aI2509
aI3627
aI8698
aI10990
aI10961
aI596
aI8747
aI8955
aI7507
aI7165
aI2717
aI5352
aI7439
aI8397
aI8007
aI3522
aI7297
aI4011
aI2198
aI5824
aI5626
aI3505
aI10089
aI8448
aI8023
aI6876
aI10544
aI10450
aI6683
aI10100
aI8595
aI2039
aI6118
aI8800
aa(lp3
I3623
aI7610
aI7049
aI8182
aI6883
aI3564
aI9653
aI7381
aI3688
aI1870
aI2545
aI5092
aI2912
aI11138
aI6106
aI8712
aI4057
aI11176
aI9118
aI9198
aI1890
aI6935
aI2841
aI9539
aI7705
aI8008
aI11154
aI1176
aI4925
aI11146
aI6225
aI9085
aI1293
aI4464
aI10714
aI374
aI6310
aI2761
aI2440
aI3162
aI4864
aI10997
aI5700
aI7782
aI6431
aI8478
aI3652
aI10554
aI5776
aI11045
aI6607
aI8071
aI4488
aI1374
aI1744
aI837
aI7296
aI600
aI6480
aI10290
aI9023
aI2293
aI2586
aI832
aI1085
aI110
aI10539
aI8288
aI1348
aI6709
aI1656
aI10118
aI733
aI6382
aI7303
aI5812
aI2182
aI3260
aI5879
aI10485
aI9572
aI6864
aI6972
aI3795
aI2318
aI5112
aI5237
aI9377
aI10855
aI3928
aI9803
aI4573
aI6655
aI8234
aI6513
aI4107
aI1071
aI1371
aI11276
aI9613
aI11281
aI5895
aI7760
aI1754
aI2937
aI3570
aI2337
aI5575
aI7498
aI10081
aI1941
aI10324
aI4306
aI6590
aI8034
aI3606
aI4465
aI4424
aI7993
aI7522
aI5624
aI10392
aI4879
aI1268
aI8132
aI6273
aI9147
aI1392
aI11248
aI9185
aI3986
aI10843
aI4089
aI5560
aI4397
aI6192
aI3498
aI8462
aI6370
aI6611
aI3827
aI7238
aI2839
aI9934
aI11268
aI9314
aI1154
aI4613
aI4227
aI5006
aI3997
aI4205
aI1349
aI4518
aI2737
aI8693
aI1859
aI2078
aI4164
aI4473
aI4806
aI4979
aI8262
aI5200
aI1721
aI9861
aI5077
aI8051
aI5393
aI5930
aI4576
aI4063
aI10780
aI3318
aI4955
aI991
aI3194
aI8950
aI9850
aI10141
aI8344
aI7741
aI1657
aI564
aI3547
aI4243
aI7146
aI5373
aI6161
aI9884
aI995
aI8509
aI665
aI2836
aI8256
aI2256
aI11196
aI2187
aI7855
aI7609
aI6790
aI2023
aI8685
aI9621
aI11337
aI4643
aI5964
aI9164
aI1285
aI3899
aI6598
aI6632
aI253
aI857
aI2379
aI10639
aI2447
aI10534
aI3675
aI259
aI6239
aI276
aI6968
aI5306
aI5682
aI11279
aI9883
aI5915
aI628
aI667
aI1214
aI1851
aI6915
aI4928
aI8746
aI5226
aI9006
aI3751
aI5217
aI9400
aI10703
aI7175
aI890
aI7194
aI3390
aI5117
aI7600
aI9225
aI2924
aI4476
aI8718
aI3439
aI3920
aI9863
aI6095
aI1
aI4685
aI5584
aI10800
aI2184
aI532
aI2390
aI1098
aI7527
aI8532
aI9029
aI6703
aI6537
aI9698
aI2997
aI5187
aI9378
aI5280
aI5760
aI11105
aI5141
aI2815
aI10341
aI3624
aI1186
aI6900
aI6736
aI9411
aI6544
aI10423
aI8875
aI1726
aI11074
aI6064
aI3807
aI3834
aI2452
aI2508
aI11234
aI10086
aI2624
aI2267
aI7411
aI9317
aI5098
aI7266
aI4026
aI6009
aI3513
aI8243
aI623
aI248
aI635
aI5649
aI9301
aI10253
aI7910
aI6762
aI4854
aI10120
aI9466
aI11134
aI3891
aI8308
aI3286
aI8642
aI4951
aI8277
aI7543
aI7857
aI2687
aI6190
aI294
aI246
aI5385
aI177
aI799
aI1929
aI9666
aI9508
aI1319
aI4948
aI140
aI9099
aI3665
aI2117
aI1359
aI1022
aI9273
aI8188
aI691
aI8422
aI11296
aI9856
aI2087
aI13
aI7147
aI6222
aI10103
aI9857
aI6299
aI48
aI6376
aI7605
aI6162
aI275
aI10080
aI6711
aI462
aI715
aI6700
aI11083
aI3503
aI5808
aI3876
aI4565
aI5447
aI10175
aI7986
aI7456
aI806
aI5714
aI1529
aI1918
aI843
aI5062
aI8898
aI8912
aI7088
aI1390
aI4462
aI8356
aI7284
aI2234
aI10077
aI5753
aI10482
aI895
aI8779
aI4592
aI183
aI472
aI8005
aI4623
aI5158
aI8889
aI9655
aI5107
aI4671
aI9798
aI1613
aI881
aI6798
aI6615
aI2500
aI3372
aI3730
aI1062
aI3441
aI7808
aI10818
aI10805
aI7494
aI1963
aI11170
aI1680
aI2381
aI9074
aI6518
aI9779
aI10710
aI11298
aI4230
aI3549
aI9673
aI106
aI8098
aI6719
aI1558
aI2345
aI3838
aI6911
aI10777
aI1102
aI9012
aI2313
aI4193
aI1222
aI4024
aI6699
aI2159
aI9717
aI2755
aI10210
aI5533
aI11189
aI6852
aI9098
aI6215
aI1881
aI9630
aI11379
aI11223
aI705
aI748
aI546
aI10304
aI1126
aI5990
aI8390
aI6345
aI9839
aI6383
aI1087
aI5071
aI8172
aI6000
aI6289
aI6816
aI3736
aI7270
aI5898
aI475
aI9061
aI4702
aI1896
aI8634
aI7708
aI1123
aI9895
aI9418
aI1231
aI1882
aI10390
aI5691
aI6634
aI10878
aI6060
aI620
aI1113
aI10972
aI1707
aI3613
aI4459
aI210
aI4606
aI6899
aI7491
aI6994
aI8280
aI6993
aI2797
aI6124
aI10573
aI7838
aI6506
aI8063
aI8348
aI1073
aI601
aI11342
aI576
aI3771
aI2271
aI2289
aI4809
aI5975
aI4843
aI8109
aI5672
aI4973
aI399
aI989
aI3192
aI5811
aI3721
aI6930
aI4858
aI8802
aI7397
aI9618
aI10593
aI3971
aI8810
aI9169
aI127
aI5411
aI4554
aI6408
aI9464
aI6423
aI5671
aI351
aI2913
aI642
aI426
aI3373
aI9494
aI7757
aI7786
aI10344
aI6694
aI2004
aI5792
aI5278
aI6840
aI4204
aI2400
aI1112
aI4415
aI5072
aI10431
aI7531
aI8204
aI8170
aI11153
aI10135
aI3446
aI11387
aI8938
aI1368
aI10282
aI9227
aI4348
aI10758
aI8163
aI1220
aI11135
aI3860
aI3210
aI4105
aI11206
aI1425
aI9738
aI5832
aI9479
aI5031
aI3705
aI2677
aI9821
aI5782
aI427
aI6402
aI8211
aI4040
aI6785
aI3839
aI11317
aI1617
aI6510
aI5356
aI8022
aI2483
aI5831
aI9780
aI5458
aI7639
aI8171
aI4321
aI161
aI1968
aI7611
aI10517
aI11127
aI11010
aI10530
aI3922
aI8241
aI5909
aI10681
aI4527
aI3019
aI7430
aI2150
aI9342
aI11002
aI8318
aI1027
aI5528
aI9765
aI8929
aI1574
aI3403
aI8808
aI10004
aI9634
aI7844
aI9615
aI1063
aI5135
aI4551
aI9033
aI1659
aI1440
aI10428
aI10874
aI10781
aI9021
aI11184
aI10276
aI1973
aI9712
aI9484
aI7293
aI1161
aI5750
aI10352
aI10106
aI5960
aI9434
aI1723
aI2444
aI1873
aI9711
aI840
aI8861
aI10851
aI3718
aI1780
aI7977
aI1994
aI10198
aI2601
aI2521
aI7045
aI9272
aI9867
aI1437
aI10556
aI3454
aI3969
aI10014
aI1834
aI4748
aI4276
aI2506
aI11400
aI2870
aI4068
aI2176
aI8052
aI8147
aI7992
aI4169
aI2763
aI9591
aI7004
aI3972
aI5343
aI5439
aI8083
aI5460
aI1771
aI2374
aI6093
aI1884
aI5592
aI10597
aI4425
aI2045
aI280
aI8009
aI1961
aI3142
aI9158
aI9144
aI1322
aI9940
aI8766
aI4330
aI6277
aI969
aI8020
aI3728
aI3907
aI8305
aI6997
aI5303
aI7388
aI6702
aI5842
aI7932
aI6541
aI10079
aI9985
aI417
aI6565
aI6614
aI3024
aI10254
aI2741
aI2848
aI354
aI8694
aI2716
aI1671
aI10138
aI6079
aI10314
aI5923
aI8152
aI1766
aI8388
aI5223
aI6470
aI9651
aI10545
aI6868
aI99
aI9565
aI2262
aI3567
aI4898
aI9266
aI2842
aI9
aI10372
aI8104
aI9296
aI3225
aI7755
aI10929
aI8615
aI9761
aI2052
aI10641
aI7512
aI2043
aI8517
aI10497
aI9316
aI5986
aI389
aI5281
aI7469
aI7015
aI203
aI4295
aI1245
aI7739
aI5371
aI1875
aI199
aI9072
aI4366
aI9289
aI10104
aI10381
aI4961
aI345
aI5785
aI9060
aI10488
aI7422
aI5922
aI4953
aI8622
aI3905
aI7509
aI1837
aI1628
aI3350
aI6237
aI7922
aI10863
aI2061
aI2467
aI7907
aI10065
aI2582
aI1305
aI5173
aI2773
aI11005
aI5162
aI8476
aI3467
aI626
aI6337
aI6358
aI2516
aI4294
aI9635
aI579
aI2000
aI3517
aI6592
aI5595
aI1513
aI10098
aI5219
aI10870
aI9862
aI7963
aI8287
aI11284
aI10913
aI10441
aI590
aI10804
aI7812
aI6242
aI5942
aI3434
aI10557
aI2309
aI7957
aI11040
aI2020
aI842
aI9016
aI3595
aI6974
aI8692
aI7676
aI6404
aI3757
aI11096
aI11070
aI4299
aI692
aI484
aI1377
aI6638
aI7564
aI6713
aI8592
aI10492
aI3959
aI300
aI861
aI171
aI3861
aI889
aI4114
aI6608
aI365
aI3515
aI4920
aI5443
aI10449
aI10521
aI4608
aI896
aI10621
aI6282
aI9907
aI9610
aI10594
aI4664
aI5905
aI9188
aI8993
aI6923
aI9661
aI3265
aI5765
aI3407
aI637
aI9221
aI5505
aI182
aI3910
aI10090
aI9859
aI5763
aI10588
aI500
aI7566
aI10007
aI10808
aI10584
aI6862
aI3076
aI10101
aI3082
aI1828
aI11372
aI9743
aI9138
aI5164
aI7193
aI8801
aI5542
aI1158
aI9901
aI6412
aI3242
aI1391
aI8012
aI817
aI10884
aI1000
aI4757
aI10849
aI4155
aI6942
aI10448
aI9352
aI10769
aI9693
aI7350
aI1702
aI132
aI3559
aI926
aI9577
aI1808
aI6087
aI8180
aI8359
aI9465
aI9226
aI9311
aI11402
aI4835
aI3464
aI3893
aI7965
aI3545
aI3509
aI1354
aI7733
aI934
aI8503
aI2183
aI1131
aI3657
aI10921
aI8986
aI2408
aI3420
aI9052
aI5123
aI4051
aI10692
aI791
aI6278
aI2790
aI1468
aI3643
aI10840
aI5701
aI5570
aI2489
aI10790
aI1764
aI2192
aI5001
aI6914
aI5889
aI4401
aI1059
aI7442
aI431
aI8302
aI10414
aI11112
aI7272
aI4699
aI6774
aI1376
aI5386
aI1666
aI7860
aI7420
aI960
aI149
aI2952
aI175
aI6800
aI8075
aI7916
aI1512
aI6340
aI8238
aI5689
aI2704
aI8237
aI4959
aI9507
aI3714
aI5336
aI11140
aI11239
aI8225
aI6716
aI3450
aI7517
aI608
aI7859
aI11363
aI4198
aI9214
aI7410
aI8341
aI7064
aI10172
aI7640
aI8640
aI10958
aI929
aI5546
aI5867
aI1254
aI11143
aI10694
aI9625
aI10852
aI197
aI4657
aI7242
aI4532
aI5017
aI7694
aI1809
aI8427
aI8925
aI11404
aI10889
aI8347
aI3412
aI10289
aI4574
aI4273
aI2238
aI7417
aI6098
aI6254
aI5487
aI9980
aI3458
aI9424
aI7554
aI8121
aI5516
aI2555
aI5340
aI2297
aI6594
aI1479
aI1720
aI5926
aI9089
aI6449
aI4654
aI5681
aI3128
aI4794
aI1408
aI5859
aI6304
aI9446
aI3273
aI2130
aI1215
aI5873
aI6153
aI4786
aI6481
aI8459
aI5013
aI1855
aI2270
aI3050
aI9574
aI2994
aI9359
aI1568
aI713
aI1267
aI7927
aI9628
aI9600
aI6794
aI4999
aI6057
aI7010
aI10430
aI6068
aI10987
aI6817
aI2328
aI1965
aI5196
aI1651
aa(lp4
I4578
aI4611
aI10300
aI10774
aI1192
aI9982
aI6427
aI40
aI8942
aI1250
aI4134
aI434
aI8101
aI3763
aI9773
aI8106
aI214
aI4784
aI11274
aI1306
aI1155
aI1459
aI4992
aI7246
aI3379
aI9329
aI9356
aI5598
aI4926
aI7032
aI4904
aI3687
aI2127
aI5796
aI6388
aI2875
aI1992
aI9646
aI8290
aI759
aI6827
aI3526
aI7391
aI8541
aI3307
aI4082
aI11026
aI3102
aI4902
aI6766
aI7248
aI93
aI10991
aI3068
aI921
aI808
aI10571
aI5451
aI7067
aI9654
aI5374
aI5904
aI4821
aI1730
aI9205
aI5065
aI9467
aI3216
aI9696
aI2623
aI4404
aI6360
aI76
aI4331
aI8383
aI4617
aI9302
aI10020
aI8560
aI10399
aI3305
aI3229
aI7817
aI5255
aI6010
aI4800
aI3560
aI9299
aI1013
aI7591
aI1746
aI5558
aI992
aI3792
aI4313
aI7942
aI8286
aI9788
aI6660
aI5641
aI4371
aI7387
aI553
aI9709
aI3991
aI4888
aI7339
aI3699
aI3630
aI1823
aI7699
aI6996
aI1925
aI1630
aI6292
aI8633
aI7359
aI2019
aI4159
aI5251
aI4524
aI4607
aI8684
aI5803
aI9583
aI6906
aI8266
aI2648
aI10768
aI9887
aI3903
aI5450
aI3213
aI6681
aI7730
aI8876
aI3161
aI8720
aI9975
aI1317
aI10830
aI3287
aI3315
aI9692
aI10635
aI2712
aI4116
aI2699
aI11164
aI9754
aI27
aI4447
aI5069
aI4894
aI7100
aI5511
aI7055
aI7598
aI5050
aI3067
aI10725
aI7479
aI5897
aI2139
aI6332
aI3697
aI10286
aI10228
aI9873
aI4940
aI9955
aI7532
aI3558
aI9752
aI10261
aI116
aI8728
aI5079
aI10747
aI6508
aI5704
aI8066
aI872
aI8648
aI1358
aI7682
aI6173
aI3200
aI1446
aI6507
aI1850
aI8420
aI6270
aI8885
aI10881
aI394
aI6653
aI2041
aI2571
aI6878
aI10377
aI11007
aI2714
aI4258
aI2151
aI8995
aI1173
aI8416
aI9633
aI4542
aI6708
aI10442
aI5737
aI8442
aI3819
aI3160
aI8167
aI8945
aI1399
aI916
aI2450
aI1509
aI6396
aI8608
aI7218
aI11208
aI7921
aI5417
aI1312
aI1769
aI1514
aI6745
aI8817
aI2825
aI5868
aI983
aI1862
aI1507
aI4329
aI7913
aI10241
aI6954
aI8450
aI10105
aI3333
aI3258
aI5005
aI2733
aI18
aI10384
aI10115
aI6763
aI5308
aI1807
aI9174
aI8279
aI5844
aI5654
aI3254
aI5648
aI9208
aI6175
aI3408
aI10472
aI3140
aI9759
aI10249
aI970
aI9514
aI6122
aI8909
aI5605
aI6234
aI2884
aI11047
aI6519
aI8832
aI6403
aI11159
aI6135
aI9137
aI6400
aI4124
aI8309
aI6871
aI3426
aI6516
aI3264
aI8525
aI5254
aI10669
aI5954
aI9483
aI2531
aI1269
aI5427
aI1989
aI9573
aI9612
aI6170
aI6147
aI1224
aI3279
aI2969
aI6548
aI8404
aI176
aI2764
aI11351
aI8704
aI5858
aI5931
aI9544
aI9559
aI3306
aI3963
aI10220
aI10312
aI4810
aI8880
aI7349
aI2119
aI727
aI7831
aI9656
aI5901
aI11357
aI6742
aI6348
aI2101
aI902
aI8846
aI5212
aI624
aI512
aI7263
aI4931
aI7361
aI4323
aI5629
aI6940
aI7400
aI5789
aI7171
aI4655
aI8818
aI2928
aI2767
aI4634
aI5819
aI2144
aI2348
aI1616
aI1935
aI1510
aI1852
aI10526
aI8369
aI8631
aI6065
aI9824
aI7538
aI5023
aI2979
aI2080
aI5881
aI3543
aI8149
aI10996
aI3809
aI5267
aI8726
aI3942
aI9337
aI5801
aI569
aI8625
aI9951
aI11003
aI8082
aI1874
aI9590
aI3274
aI6327
aI10743
aI586
aI6082
aI2670
aI10676
aI4701
aI597
aI1325
aI131
aI11396
aI7409
aI1712
aI3035
aI240
aI3676
aI2154
aI724
aI3610
aI5884
aI3879
aI2682
aI62
aI3156
aI2437
aI7695
aI7082
aI10626
aI6303
aI8440
aI2580
aI8775
aI11314
aI5769
aI1089
aI9505
aI7737
aI7713
aI8333
aI5919
aI7425
aI5474
aI5422
aI9745
aI5316
aI547
aI1289
aI8630
aI3468
aI2095
aI6019
aI4792
aI1168
aI2840
aI4721
aI3577
aI1829
aI11165
aI3557
aI6672
aI11115
aI7346
aI2720
aI8187
aI2462
aI9184
aI11067
aI3712
aI1592
aI5791
aI7035
aI10854
aI335
aI10508
aI1506
aI4487
aI3314
aI5239
aI3182
aI9832
aI1164
aI10528
aI720
aI254
aI31
aI8786
aI1921
aI11275
aI6181
aI3251
aI2427
aI8705
aI8920
aI7200
aI7020
aI9617
aI7239
aI10474
aI8080
aI3532
aI9042
aI7648
aI4638
aI5265
aI8652
aI509
aI3146
aI9020
aI5554
aI188
aI2557
aI10292
aI10147
aI8626
aI4099
aI10719
aI1486
aI8826
aI7539
aI887
aI378
aI6394
aI3511
aI8776
aI5780
aI9247
aI6080
aI6405
aI6869
aI11175
aI2634
aI8370
aI10038
aI5728
aI5545
aI855
aI9913
aI277
aI10170
aI10969
aI6714
aI3968
aI8179
aI3266
aI7160
aI5746
aI7434
aI9849
aI3962
aI9437
aI3171
aI2957
aI1891
aI7203
aI3438
aI8781
aI6574
aI4033
aI7123
aI4691
aI11313
aI10538
aI1420
aI9258
aI7908
aI10064
aI551
aI4375
aI102
aI1099
aI2347
aI9403
aI2035
aI7544
aI1259
aI2771
aI4865
aI6964
aI1689
aI11250
aI5188
aI6936
aI7872
aI5380
aI8026
aI3098
aI2464
aI1546
aI3901
aI3835
aI8233
aI1301
aI868
aI9032
aI6205
aI3143
aI610
aI7952
aI5492
aI8526
aI8872
aI1975
aI2391
aI524
aI1645
aI190
aI6339
aI5137
aI11156
aI3449
aI6532
aI3249
aI4194
aI10831
aI4624
aI10610
aI3777
aI10353
aI6751
aI6433
aI1861
aI1054
aI2845
aI5008
aI2248
aI4241
aI2459
aI9865
aI10753
aI7545
aI8794
aI6395
aI5274
aI5552
aI6560
aI10698
aI3961
aI2615
aI2926
aI1598
aI5126
aI1052
aI11303
aI4096
aI10113
aI5324
aI8543
aI1980
aI496
aI10640
aI6342
aI2535
aI2631
aI43
aI1187
aI9385
aI3189
aI790
aI10326
aI5132
aI9795
aI8848
aI2388
aI143
aI11167
aI8908
aI5900
aI5229
aI5677
aI11088
aI10088
aI1421
aI6559
aI10519
aI3685
aI5273
aI7470
aI4461
aI4278
aI11326
aI415
aI11311
aI10345
aI4064
aI5437
aI3020
aI8856
aI4842
aI11198
aI130
aI9223
aI4192
aI2185
aI3201
aI8963
aI11364
aI4478
aI9045
aI5294
aI8352
aI3626
aI8385
aI382
aI7840
aI4112
aI10751
aI4651
aI9380
aI8271
aI2807
aI4475
aI1189
aI2889
aI9925
aI1180
aI9215
aI2164
aI7365
aI5804
aI6475
aI4421
aI10458
aI10934
aI10699
aI4008
aI1316
aI10775
aI3186
aI2879
aI9395
aI5520
aI1077
aI6505
aI8895
aI5967
aI6741
aI5768
aI7746
aI8028
aI8971
aI10527
aI8304
aI1722
aI4693
aI4986
aI660
aI4009
aI10569
aI1375
aI2162
aI2757
aI4190
aI5939
aI9546
aI10564
aI3115
aI6677
aI7028
aI1493
aI6029
aI87
aI9724
aI4345
aI5369
aI9211
aI4014
aI828
aI10850
aI6241
aI5325
aI3946
aI6375
aI317
aI28
aI5632
aI10169
aI3974
aI3683
aI2990
aI1982
aI4789
aI1236
aI3059
aI3083
aI6251
aI7418
aI11219
aI9022
aI8336
aI11377
aI8789
aI9852
aI1318
aI11361
aI7291
aI5025
aI657
aI11116
aI10971
aI8209
aI8932
aI9841
aI10653
aI3765
aI6844
aI2597
aI8331
aI11367
aI8283
aI10572
aI7724
aI10886
aI502
aI7289
aI10962
aI1178
aI2610
aI3445
aI2334
aI7081
aI5744
aI7970
aI8554
aI5347
aI1618
aI981
aI329
aI6344
aI5415
aI2584
aI7477
aI2042
aI4735
aI4688
aI3939
aI4463
aI1542
aI8922
aI3057
aI867
aI2454
aI5214
aI1878
aI4883
aI10932
aI412
aI5878
aI4055
aI4950
aI8144
aI7795
aI7452
aI2517
aI8601
aI4795
aI3635
aI6034
aI6368
aI5368
aI10288
aI8805
aI9796
aI7030
aI6922
aI1458
aI7691
aI9381
aI2230
aI7966
aI3647
aI2628
aI11280
aI10152
aI1355
aI3727
aI1621
aI6566
aI8581
aI6512
aI10558
aI3837
aI7518
aI3993
aI4382
aI9917
aI4593
aI1908
aI9141
aI4957
aI2365
aI1181
aI3179
aI2945
aI3618
aI4422
aI10461
aI3833
aI6773
aI2605
aI5537
aI11417
aI4505
aI7034
aI1705
aI8831
aI3398
aI7390
aI695
aI3587
aI2838
aI4218
aI2813
aI1279
aI6189
aI8951
aI3580
aI2021
aI1205
aI4647
aI4834
aI3366
aI10376
aI1517
aI2432
aI2695
aI8947
aI2412
aI8688
aI3889
aI885
aI5833
aI8939
aI3375
aI8796
aI814
aI2188
aI8844
aI5955
aI1412
aI1272
aI1899
aI2209
aI6077
aI7310
aI8884
aI3622
aI8760
aI8064
aI2750
aI482
aI1676
aI8371
aI3941
aI1747
aI933
aI6429
aI9097
aI2919
aI1667
aI10008
aI7606
aI9101
aI8588
aI9139
aI690
aI775
aI6833
aI5660
aI3364
aI6759
aI1275
aI4775
aI1394
aI7790
aI5754
aI10822
aI1523
aI9952
aI7642
aI5732
aI6454
aI4098
aI4283
aI9346
aI5638
aI5270
aI2488
aI3762
aI8792
aI7078
aI598
aI2424
aI672
aI1404
aI6582
aI2469
aI7099
aI7674
aI3711
aI6609
aI792
aI4289
aI11085
aI10273
aI10196
aI5128
aI10217
aI8791
aI10087
aI4347
aI4263
aI8923
aI3425
aI8381
aI1887
aI10617
aI1836
aI8293
aI2499
aI1455
aI9683
aI721
aI9741
aI9993
aI321
aI8483
aI8527
aI1913
aI2278
aI4271
aI1839
aI8961
aI2155
aI6895
aI3615
aI5510
aI6255
aI685
aI10027
aI3940
aI10475
aI1121
aI1370
aI11149
aI7187
aI459
aI2477
aI2490
aI6050
aI10513
aI9889
aI4255
aI6126
aI9772
aI8295
aI6150
aI11142
aI2890
aI1910
aI5190
aI4406
aI8061
aI9398
aI3105
aI4270
aI7979
aI7449
aI10493
aI1307
aI10941
aI1571
aI9355
aI696
aI6138
aI9010
aI8617
aI6005
aI2758
aI4746
aI407
aI3309
aI2496
aI924
aI5771
aI652
aI6214
aI4751
aI2319
aI1732
aI2950
aI1378
aI7167
aI594
aI8773
aI6330
aI6236
aI10303
aI2804
aI8162
aI2873
aI1942
aI8267
aI6158
aI358
aI4694
aI3650
aI8916
aI3653
aI11008
aI4296
aI8824
aI6546
aI6439
aI6514
aI9930
aI10489
aI9974
aI6414
aI10638
aI4369
aI1928
aI1226
aI8424
aI3215
aI6398
aI760
aI6562
aI6980
aI8937
aI4060
aI8915
aI7317
aI2986
aI8342
aI8134
aI3089
aI5944
aI8095
aI4125
aI447
aI7989
aI1936
aI1034
aI6476
aI648
aI3588
aI7919
aI1090
aI10402
aI54
aI3768
aI6446
aI3900
aI2540
aI4021
aI5981
aI6167
aI4053
aa(lp5
I4774
aI2217
aI7565
aI776
aI6024
aI2419
aI4308
aI4670
aI781
aI3678
aI1338
aI10374
aI7226
aI3998
aI1748
aI201
aI9756
aI4062
aI10111
aI2395
aI8263
aI6120
aI2803
aI10686
aI363
aI1844
aI2564
aI10078
aI2175
aI6761
aI9561
aI1593
aI1677
aI9197
aI10297
aI9513
aI2639
aI9351
aI6461
aI1648
aI9084
aI9579
aI3979
aI8521
aI7529
aI5228
aI3296
aI7120
aI9801
aI9303
aI260
aI7905
aI3411
aI533
aI1015
aI3988
aI7210
aI1296
aI1538
aI3851
aI3048
aI9080
aI11199
aI6460
aI6084
aI11321
aI5872
aI1200
aI10688
aI4838
aI5699
aI3534
aI364
aI7987
aI1625
aI8195
aI4016
aI4845
aI5847
aI718
aI6483
aI1188
aI9740
aI3611
aI1072
aI11297
aI3554
aI4228
aI5547
aI6777
aI3957
aI6815
aI5799
aI8417
aI906
aI1432
aI4498
aI5623
aI5476
aI10759
aI1904
aI10892
aI464
aI5433
aI6328
aI7613
aI1914
aI6436
aI6264
aI3099
aI1208
aI1120
aI11157
aI5338
aI1227
aI9129
aI9622
aI3519
aI7433
aI10797
aI3230
aI9637
aI10359
aI6076
aI6287
aI10865
aI6654
aI8879
aI8246
aI2378
aI5767
aI2844
aI8458
aI4022
aI10165
aI11163
aI6858
aI7653
aI8539
aI5541
aI1172
aI151
aI3367
aI8477
aI10072
aI10181
aI5203
aI26
aI3591
aI3224
aI4585
aI2731
aI10672
aI8185
aI10037
aI487
aI5036
aI1587
aI7213
aI2959
aI1582
aI8637
aI8681
aI1758
aI10643
aI10371
aI1572
aI7315
aI3008
aI9310
aI3871
aI9347
aI10826
aI4571
aI6061
aI1286
aI10899
aI10755
aI9794
aI4139
aI6865
aI506
aI9024
aI5614
aI9977
aI6391
aI6291
aI4851
aI756
aI8770
aI7505
aI109
aI2513
aI2936
aI4445
aI4970
aI10302
aI2698
aI5814
aI5381
aI1179
aI10868
aI8650
aI8733
aI2792
aI261
aI5247
aI2050
aI693
aI10235
aI2645
aI4412
aI6722
aI3663
aI6740
aI11016
aI458
aI4763
aI4151
aI117
aI7068
aI5719
aI6739
aI4252
aI6849
aI8489
aI9336
aI7520
aI10258
aI4797
aI10225
aI5708
aI2954
aI8936
aI3897
aI8533
aI10117
aI5673
aI4891
aI3529
aI4963
aI10221
aI3966
aI7051
aI2212
aI3868
aI675
aI9217
aI10724
aI771
aI3666
aI10043
aI9250
aI11000
aI4761
aI3471
aI8017
aI2304
aI3220
aI2876
aI7153
aI10746
aI2583
aI5724
aI5642
aI4072
aI829
aI10483
aI2009
aI5706
aI9276
aI4152
aI10192
aI3781
aI303
aI751
aI5755
aI7182
aI1984
aI469
aI6256
aI8379
aI8590
aI770
aI10230
aI6772
aI712
aI5886
aI11124
aI9789
aI4598
aI8425
aI10642
aI5794
aI4123
aI3776
aI3832
aI7941
aI10875
aI2026
aI2156
aI2962
aI8842
aI9823
aI5074
aI8921
aI8117
aI11312
aI3414
aI7929
aI9688
aI7443
aI9558
aI9249
aI2434
aI2830
aI4680
aI10114
aI9942
aI4188
aI1969
aI1211
aI6889
aI4076
aI10762
aI915
aI2476
aI1473
aI2578
aI10707
aI5252
aI5748
aI11273
aI4935
aI9518
aI9181
aI10360
aI616
aI97
aI9448
aI6687
aI7882
aI9811
aI5407
aI5102
aI10296
aI2995
aI9343
aI928
aI7937
aI8607
aI677
aI8725
aI3359
aI10042
aI2996
aI3642
aI1118
aI4346
aI3990
aI425
aI9442
aI10908
aI8664
aI6322
aI8516
aI3831
aI2218
aI3183
aI6586
aI11348
aI8644
aI2435
aI6804
aI10028
aI1812
aI10665
aI2728
aI5806
aI10722
aI4807
aI513
aI2965
aI1847
aI5215
aI4522
aI9421
aI7401
aI8454
aI2361
aI5151
aI6411
aI6094
aI9551
aI6975
aI765
aI1704
aI1193
aI3278
aI6813
aI6464
aI7377
aI8500
aI11293
aI1021
aI4798
aI5076
aI5830
aI8199
aI6531
aI5143
aI4477
aI5962
aI10284
aI10918
aI4351
aI4788
aI925
aI4545
aI5534
aI7626
aI11395
aI2382
aI8965
aI3190
aI3071
aI1300
aI11121
aI492
aI8235
aI7833
aI8589
aI6285
aI2158
aI5182
aI7348
aI5702
aI4971
aI1501
aI2165
aI5176
aI5063
aI10490
aI408
aI6305
aI7309
aI4683
aI2640
aI6605
aI977
aI5976
aI5529
aI4092
aI8798
aI731
aI10464
aI7393
aI5951
aI1016
aI963
aI9603
aI5057
aI3335
aI1537
aI6668
aI7537
aI5705
aI7114
aI2311
aI2746
aI2905
aI3320
aI7379
aI9482
aI3371
aI5888
aI7027
aI3038
aI2047
aI3703
aI6163
aI899
aI8585
aI5043
aI2587
aI1688
aI3290
aI6196
aI2898
aI6139
aI7721
aI5553
aI5389
aI9866
aI10199
aI10333
aI252
aI2148
aI4370
aI2371
aI2664
aI8620
aI2933
aI1544
aI8079
aI8338
aI7801
aI5826
aI8177
aI10206
aI2791
aI2082
aI6839
aI4605
aI139
aI8852
aI3392
aI3157
aI1367
aI9485
aI8339
aI9090
aI728
aI4805
aI8783
aI1695
aI6418
aI9601
aI980
aI6743
aI8777
aI8074
aI187
aI8568
aI5773
aI6643
aI440
aI8886
aI4507
aI2538
aI1283
aI243
aI853
aI6306
aI9315
aI10930
aI11305
aI6296
aI6995
aI2369
aI10579
aI5519
aI9230
aI11123
aI5932
aI3153
aI3733
aI8857
aI4830
aI4045
aI7338
aI10834
aI7763
aI10301
aI4085
aI3340
aI5300
aI7620
aI11171
aI10609
aI905
aI7624
aI8281
aI3592
aI636
aI7958
aI5730
aI1336
aI5406
aI2011
aI9535
aI7070
aI2895
aI7526
aI4728
aI6640
aI6219
aI10857
aI5512
aI6644
aI5912
aI11409
aI6097
aI6293
aI7853
aI3636
aI8614
aI3267
aI911
aI1139
aI6924
aI11287
aI8864
aI3331
aI2305
aI6753
aI8214
aI7415
aI386
aI2916
aI2740
aI4791
aI8253
aI1229
aI11009
aI9445
aI5194
aI5600
aI10463
aI5397
aI6684
aI2917
aI10735
aI10076
aI6723
aI6477
aI9893
aI2546
aI8649
aI4536
aI5384
aI9720
aI795
aI5502
aI8445
aI9406
aI7019
aI8032
aI9710
aI5391
aI6191
aI3921
aI241
aI951
aI2820
aI5916
aI6686
aI4410
aI8657
aI2006
aI8024
aI6246
aI9972
aI8599
aI526
aI2116
aI4142
aI3552
aI9196
aI3222
aI10727
aI4468
aI6110
aI10858
aI5119
aI803
aI10695
aI10764
aI2853
aI1954
aI742
aI3520
aI7211
aI7875
aI5758
aI8384
aI4337
aI10923
aI9123
aI7990
aI11006
aI7480
aI4385
aI5568
aI10176
aI4534
aI2608
aI2832
aI7177
aI1418
aI2883
aI1295
aI11049
aI8690
aI4678
aI8408
aI8707
aI9282
aI6042
aI10305
aI3079
aI7849
aI7789
aI9629
aI3313
aI6420
aI11188
aI4430
aI10191
aI7778
aI1518
aI4173
aI6597
aI2171
aI3355
aI5982
aI3109
aI818
aI10796
aI664
aI7601
aI10074
aI7582
aI8661
aI592
aI9143
aI1361
aI10022
aI10083
aI10187
aI64
aI1277
aI5288
aI9632
aI4423
aI1788
aI10149
aI6444
aI9871
aI1175
aI1895
aI2814
aI4832
aI9172
aI7053
aI2653
aI7130
aI7285
aI9362
aI6349
aI2871
aI3493
aI8662
aI8969
aI4156
aI8056
aI6595
aI1407
aI4049
aI2581
aI7432
aI4528
aI999
aI9939
aI8085
aI11336
aI938
aI4387
aI6203
aI1791
aI3417
aI2629
aI4668
aI3351
aI4747
aI8343
aI716
aI3339
aI641
aI7356
aI1773
aI4070
aI11407
aI1445
aI8828
aI5240
aI9140
aI1239
aI8829
aI1398
aI7835
aI67
aI5958
aI11228
aI5109
aI6860
aI1795
aI7318
aI1129
aI7152
aI7870
aI10568
aI11122
aI5869
aI264
aI4766
aI10739
aI7602
aI3985
aI3735
aI2418
aI9880
aI8577
aI1522
aI10701
aI5155
aI8548
aI10779
aI5275
aI5761
aI3085
aI8806
aI1974
aI1960
aI6298
aI6838
aI7059
aI7666
aI3863
aI1849
aI2003
aI7530
aI7062
aI474
aI3477
aI1298
aI8156
aI7560
aI7595
aI8979
aI5466
aI5245
aI3485
aI10227
aI9876
aI8602
aI6910
aI2089
aI7769
aI4450
aI811
aI7313
aI4705
aI8596
aI6426
aI4942
aI5566
aI10494
aI2303
aI2572
aI6692
aI7787
aI5865
aI7734
aI25
aI2864
aI2097
aI7492
aI7493
aI7804
aI4881
aI2504
aI1119
aI6857
aI11029
aI2357
aI10229
aI1032
aI44
aI998
aI6417
aI10547
aI5956
aI15
aI1287
aI3327
aI8228
aI1461
aI7698
aI5295
aI2921
aI2350
aI6424
aI645
aI9662
aI3857
aI10829
aI10702
aI7774
aI284
aI2547
aI2862
aI8421
aI7579
aI10789
aI2445
aI4755
aI4004
aI5315
aI3009
aI2655
aI1004
aI4143
aI8999
aI1025
aI4733
aI3289
aI2851
aI6675
aI7229
aI5835
aI7412
aI7271
aI9087
aI6985
aI11323
aI9332
aI4492
aI6528
aI445
aI7440
aI10285
aI4808
aI1524
aI7143
aI6526
aI2872
aI1725
aI6432
aI2341
aI3701
aI11092
aI8505
aI9767
aI1369
aI6267
aI4750
aI8148
aI7521
aI6961
aI9946
aI2474
aI5659
aI5762
aI4846
aI3476
aI10966
aI8208
aI11382
aI6356
aI2643
aI9598
aI4994
aI2834
aI2389
aI9267
aI6474
aI7406
aI5920
aI7424
aI449
aI6035
aI6487
aI4126
aI8078
aI2626
aI8991
aI2355
aI5971
aI4210
aI3292
aI3451
aI7594
aI9995
aI6646
aI5040
aI6733
aI8610
aI10583
aI10277
aI3245
aI1789
aI4353
aI1206
aI10279
aI6048
aI282
aI11186
aI10068
aI4714
aI7692
aI7000
aI9957
aI9903
aI7464
aI3154
aI7111
aI9369
aI6044
aI2136
aI8673
aI3429
aI7306
aI3906
aI3915
aI2973
aI3033
aI104
aI2012
aI4543
aI3510
aI5488
aI10202
aI4820
aI9390
aI7933
aI6445
aI2028
aI6604
aI5843
aI9853
aI2373
aI2211
aI9822
aI4946
aI10585
aI9344
aI1557
aI5420
aI8531
aI9758
aI1926
aI7909
aI2943
aI3257
aI1915
aI6033
aI9950
aI5815
aI1347
aI2092
aI8353
aI3232
aI6612
aI7665
aI2908
aI10453
aI8161
aI172
aI6250
aI1818
aI5749
aI8732
aI6321
aI121
aI7119
aI7327
aI4199
aI1545
aI4363
aI1635
aI1785
aI4530
aI6939
aI5358
aI659
aI49
aI688
aI6520
aI1535
aI6569
aI5910
aI826
aI5741
aI4718
aI604
aI848
aI5907
aI2143
aI9537
aI6907
aI1410
aI6821
aI1297
aI9644
aI7973
aI3637
aI2073
aI4170
aI3518
aI2245
aI9124
aI4131
aI9787
aI7158
aI1329
aI1819
aI6312
aI3973
aI2881
aI985
aI6517
aI9081
aI1843
aI3782
aI6746
aI4760
aI1353
aI2473
aI8741
aI8229
aI8401
aI9915
aI11365
aI4043
aI9541
aI3525
aI9295
aI446
aI4544
aI11358
aI6070
aI5453
aI8036
aI9923
aI7396
aI2392
aI6682
aI2818
aI5257
aI9035
aa(lp6
I11241
aI7546
aI4609
aI7384
aI2528
aI3041
aI2216
aI2630
aI1740
aI4909
aI8514
aI1708
aI5822
aI8591
aI10820
aI3981
aI10179
aI4941
aI2327
aI10883
aI2470
aI5412
aI11252
aI4936
aI2214
aI10294
aI5222
aI3228
aI302
aI10329
aI923
aI457
aI9896
aI2135
aI5290
aI4983
aI2946
aI2484
aI7681
aI7199
aI1932
aI3499
aI821
aI4541
aI3538
aI2298
aI8218
aI8887
aI1804
aI4877
aI8470
aI8778
aI3093
aI1396
aI226
aI1487
aI9768
aI5455
aI2646
aI5046
aI8429
aI7656
aI8096
aI9548
aI3188
aI5279
aI793
aI1494
aI9077
aI4601
aI8125
aI3488
aI4256
aI6793
aI7395
aI208
aI10421
aI4310
aI8059
aI7677
aI8768
aI7711
aI1815
aI5189
aI9707
aI2812
aI7723
aI213
aI9642
aI6956
aI3300
aI6357
aI6944
aI7980
aI1128
aI10551
aI6671
aI5035
aI1249
aI9086
aI10127
aI6249
aI6117
aI247
aI4723
aI2774
aI2460
aI3075
aI9570
aI9647
aI3578
aI10070
aI1638
aI6501
aI5296
aI9312
aI4165
aI8413
aI2402
aI6705
aI6302
aI10651
aI10824
aI10628
aI8004
aI9056
aI4744
aI5086
aI7386
aI6017
aI5989
aI1520
aI7481
aI5241
aI1488
aI9334
aI2137
aI7735
aI3594
aI10142
aI468
aI6315
aI7008
aI5322
aI1202
aI7196
aI3869
aI1088
aI2585
aI10415
aI3120
aI7354
aI7305
aI5170
aI820
aI3323
aI3022
aI10693
aI6835
aI7162
aI8678
aI6185
aI6338
aI6554
aI6169
aI3321
aI7615
aI10161
aI8444
aI581
aI9066
aI6583
aI1136
aI7561
aI10047
aI8670
aI10503
aI3576
aI9831
aI3049
aI8409
aI7959
aI7956
aI1485
aI160
aI8299
aI9734
aI7275
aI11020
aI4343
aI8574
aI3681
aI6259
aI3114
aI2405
aI6898
aI5051
aI5059
aI2398
aI2632
aI886
aI7917
aI3241
aI5387
aI9173
aI2414
aI8911
aI572
aI2225
aI3737
aI1157
aI8153
aI5383
aI281
aI6279
aI1451
aI3386
aI10178
aI5399
aI4587
aI3342
aI1580
aI1550
aI2247
aI1869
aI4773
aI9261
aI2458
aI707
aI7
aI3806
aI7667
aI5863
aI6056
aI5054
aI2511
aI3572
aI5995
aI7227
aI4443
aI3063
aI3428
aI8536
aI8118
aI910
aI1483
aI7806
aI9886
aI7948
aI5948
aI10021
aI957
aI5496
aI6457
aI9231
aI5670
aI10046
aI7188
aI1050
aI3145
aI5530
aI10437
aI10280
aI9105
aI5157
aI891
aI1990
aI11034
aI2068
aI2899
aI5299
aI2900
aI2722
aI4567
aI10116
aI9947
aI4025
aI11218
aI5875
aI5125
aI4860
aI359
aI4589
aI5779
aI2471
aI8967
aI10792
aI9117
aI4899
aI1727
aI3540
aI9819
aI7074
aI6771
aI7899
aI4300
aI8850
aI2903
aI6853
aI6271
aI6951
aI5038
aI9409
aI9755
aI3808
aI6136
aI1144
aI330
aI1950
aI3818
aI9112
aI9326
aI2944
aI736
aI11381
aI4631
aI3297
aI9888
aI7301
aI10473
aI8696
aI6641
aI9251
aI8900
aI4253
aI4102
aI9905
aI8537
aI5525
aI7568
aI3127
aI8613
aI5377
aI2685
aI2213
aI5246
aI5633
aI8076
aI4993
aI6030
aI11329
aI5097
aI10682
aI10267
aI545
aI4197
aI4175
aI7897
aI10160
aI10600
aI10723
aI5640
aI7340
aI8053
aI94
aI1284
aI2079
aI6803
aI4418
aI8108
aI8729
aI859
aI11327
aI1405
aI6973
aI7230
aI9691
aI5028
aI10953
aI7473
aI2552
aI6698
aI2852
aI5664
aI3914
aI9357
aI7128
aI6025
aI6494
aI10124
aI8474
aI9119
aI4603
aI5973
aI3892
aI9828
aI3018
aI3173
aI234
aI6103
aI1388
aI541
aI5969
aI5880
aI6685
aI1672
aI4817
aI319
aI7288
aI9363
aI2251
aI3551
aI3427
aI10655
aI1001
aI686
aI8224
aI2666
aI571
aI7355
aI6069
aI10408
aI9068
aI10097
aI3415
aI3332
aI8060
aI7337
aI8593
aI2577
aI2001
aI1382
aI8740
aI6515
aI8375
aI4174
aI1150
aI6111
aI5972
aI3629
aI9270
aI1450
aI3191
aI8877
aI3555
aI949
aI5311
aI7616
aI11173
aI4758
aI1636
aI2197
aI2993
aI10879
aI7983
aI6841
aI5582
aI627
aI3865
aI11262
aI6128
aI2375
aI5302
aI625
aI3401
aI6413
aI1706
aI7744
aI11415
aI9108
aI4178
aI1138
aI4001
aI3396
aI6023
aI8291
aI5085
aI5494
aI2085
aI3656
aI2710
aI4420
aI11322
aI1848
aI1583
aI2920
aI3841
aI4550
aI966
aI4257
aI50
aI3995
aI6458
aI3785
aI9833
aI6389
aI10810
aI8303
aI7044
aI6534
aI2620
aI11080
aI207
aI11411
aI4616
aI2416
aI11117
aI84
aI5489
aI7651
aI4989
aI9416
aI7085
aI291
aI3400
aI11362
aI2338
aI7587
aI4301
aI4976
aI9790
aI6656
aI8504
aI3599
aI3246
aI8100
aI8298
aI8984
aI349
aI8906
aI4315
aI4614
aI1481
aI314
aI6016
aI5180
aI7975
aI5100
aI8016
aI7021
aI7584
aI7024
aI2735
aI1499
aI2505
aI5242
aI2429
aI8977
aI7405
aI11256
aI1972
aI11338
aI2576
aI4919
aI6619
aI3240
aI10071
aI8558
aI8345
aI3456
aI2174
aI1141
aI7740
aI2641
aI2272
aI9353
aI4281
aI7105
aI5425
aI1951
aI2094
aI4044
aI3252
aI8460
aI9580
aI2925
aI4286
aI7869
aI6074
aI10439
aI4209
aI73
aI7556
aI5346
aI8998
aI5636
aI663
aI1979
aI11052
aI2017
aI1431
aI4697
aI2956
aI7756
aI4362
aI10015
aI10378
aI2031
aI2284
aI10516
aI3660
aI1393
aI313
aI10151
aI10650
aI1107
aI6014
aI2849
aI206
aI3374
aI4816
aI8964
aI4220
aI7548
aI8232
aI6265
aI10618
aI3911
aI2974
aI730
aI8571
aI7854
aI307
aI11063
aI3474
aI9668
aI9475
aI9996
aI1948
aI3348
aI6220
aI8050
aI3753
aI5192
aI11179
aI4012
aI5817
aI4364
aI4427
aI7649
aI1551
aI2672
aI4538
aI6430
aI4
aI4340
aI714
aI9034
aI9500
aI4667
aI10848
aI1911
aI11098
aI7495
aI3028
aI2718
aI2246
aI4759
aI4297
aI6775
aI10907
aI6428
aI10983
aI9318
aI622
aI4145
aI5110
aI3802
aI10057
aI9473
aI9150
aI7614
aI10954
aI3026
aI9257
aI4674
aI7903
aI4007
aI4176
aI8019
aI614
aI2752
aI11209
aI9160
aI7222
aI7688
aI785
aI2195
aI10084
aI10522
aI5130
aI8380
aI2442
aI10911
aI10356
aI4150
aI342
aI5234
aI6159
aI8364
aI7731
aI4470
aI2886
aI6151
aI7823
aI7770
aI2163
aI8412
aI7172
aI1194
aI4266
aI984
aI2443
aI1466
aI3271
aI501
aI2277
aI5165
aI11172
aI11315
aI3043
aI6778
aI2254
aI8624
aI9954
aI4836
aI1627
aI2040
aI4548
aI6829
aI4221
aI4249
aI3060
aI413
aI4229
aI5446
aI5752
aI11212
aI60
aI10841
aI6053
aI9376
aI8612
aI11043
aI1678
aI2565
aI2794
aI4933
aI6781
aI9869
aI11325
aI4648
aI6453
aI9898
aI2795
aI1599
aI5577
aI3155
aI352
aI6755
aI4118
aI784
aI9471
aI2702
aI1241
aI2621
aI7005
aI1299
aI8927
aI2332
aI3239
aI11285
aI3150
aI11015
aI7818
aI941
aI7447
aI3896
aI812
aI10368
aI1620
aI8715
aI789
aI11100
aI10721
aI1321
aI10307
aI1564
aI6441
aI4357
aI6903
aI6587
aI5414
aI5565
aI1093
aI7567
aI6438
aI3590
aI7407
aI225
aI6102
aI9878
aI5134
aI9699
aI669
aI7938
aI4862
aI10940
aI7423
aI1549
aI9007
aI3747
aI8881
aI6387
aI3270
aI4594
aI10328
aI9586
aI366
aI10130
aI7087
aI2519
aI4780
aI1693
aI3935
aI7353
aI1752
aI8110
aI11238
aI10066
aI2368
aI8035
aI10905
aI344
aI7931
aI4183
aI8010
aI3695
aI8511
aI8447
aI5877
aI4356
aI1066
aI9568
aI11147
aI4914
aI9088
aI7267
aI1280
aI7104
aI8294
aI5567
aI1934
aI115
aI4889
aI10847
aI10018
aI10567
aI10318
aI6493
aI6633
aI10946
aI9327
aI9512
aI2399
aI3058
aI4274
aI1335
aI2868
aI251
aI7290
aI3565
aI4324
aI9142
aI10670
aI8261
aI673
aI3614
aI6991
aI3073
aI3113
aI10085
aI10912
aI5544
aI79
aI11347
aI297
aI2796
aI9501
aI913
aI9872
aI6832
aI192
aI8572
aI10496
aI3253
aI7889
aI4520
aI1253
aI9966
aI6938
aI3199
aI1998
aI7924
aI4596
aI8030
aI6123
aI2650
aI3221
aI2869
aI336
aI9605
aI7335
aI11201
aI4987
aI4411
aI4660
aI9550
aI1777
aI2076
aI2054
aI9309
aI6268
aI7366
aI6442
aI10615
aI4439
aI4698
aI7042
aI4101
aI6881
aI7710
aI6451
aI4749
aI5790
aI9238
aI7065
aI7307
aI1069
aI858
aI7184
aI9681
aI7472
aI875
aI1685
aI4391
aI1644
aI456
aI5745
aI4868
aI8959
aI10348
aI2929
aI9763
aI10339
aI2167
aI428
aI4866
aI3581
aI7257
aI7949
aI1995
aI5320
aI6901
aI3524
aI6200
aI3902
aI7912
aI1594
aI5726
aI1323
aI10916
aI555
aI5287
aI1749
aI3036
aI4713
aI10862
aI9031
aI6896
aI4483
aI381
aI7466
aI10416
aI9236
aI1387
aI7033
aI10295
aI9065
aI145
aI2951
aI3010
aI2596
aI4771
aI6362
aI8133
aI4923
aI11267
aI530
aI10730
aI7009
aI9919
aI8997
aI1757
aI8830
aI3243
aI493
aI10960
aI2264
aI5998
aI4853
aI4540
aI242
aI4739
aI550
aI5943
aI2335
aI4390
aI4790
aI5419
aI296
aI3413
aI1683
aI967
aI4061
aI8186
aI3262
aI8486
aI6624
aI8481
aI6664
aI1634
aI1912
aI9115
aI7788
aI6845
aI7997
aI1475
aI6040
aI429
aI8453
aI392
aI4482
aI1448
aI7877
aI4284
aI9073
aI11125
aI10580
aI6967
aI3584
aI7506
aI5011
aI4103
aI6319
aI9246
aI7131
aI9487
aI3311
aI8042
aI5933
aI2781
aI10459
aI8628
aI9431
aI1612
aI3574
aI9285
aI5590
aI8862
aI864
aI488
aI10515
aI34
aI10574
aI37
aI9476
aI2981
aI9121
aI3824
aI4298
aI6112
aI7197
aI5917
aI3482
aI8660
aI9207
aI2308
aI480
aI2678
aI1715
aI10315
aI1389
aI10772
aI11349
aI8671
aI2654
aI7940
aI1434
aI1532
aI9313
aI5440
aI9462
aI9054
aI6603
aI1681
aI9463
aI10967
aI6880
aI5461
aI217
aI11136
aI7911
aI4238
aI1339
aI6466
aI10590
aI7571
aI414
aI1078
aI8676
aI1569
aI9557
aI3583
aI568
aI8804
aI11048
aI231
aI3521
aI8901
aI6770
aI9611
aI7207
aI6717
aI528
aI11130
aI3206
aI9436
aI870
aI8485
aI5540
aI7437
aI1827
aI11042
aI3345
aI8049
aI7061
aI9252
aI10734
aI1309
aI9014
aa(lp7
I9241
aI3674
aI1217
aI8033
aI4700
aI3880
aI11328
aI9026
aI2527
aI5361
aI7054
aI1889
aI3840
aI2760
aI11054
aI325
aI5091
aI5146
aI11308
aI10349
aI1718
aI9576
aI5131
aI8570
aI238
aI11019
aI11
aI4855
aI402
aI1923
aI11021
aI8765
aI3822
aI4056
aI8150
aI126
aI7474
aI8142
aI5957
aI8006
aI2479
aI4622
aI3669
aI5841
aI9910
aI5333
aI613
aI6228
aI6496
aI383
aI10866
aI9606
aI2018
aI931
aI8220
aI55
aI1223
aI8189
aI6272
aI1436
aI10209
aI9103
aI6325
aI1381
aI2062
aI10511
aI7891
aI825
aI0
aI7720
aI4141
aI11073
aI7976
aI7830
aI10577
aI5262
aI88
aI3506
aI3402
aI4027
aI7644
aI4677
aI5307
aI11086
aI7308
aI10900
aI6223
aI9360
aI2751
aI10974
aI578
aI7166
aI6556
aI7547
aI1232
aI7885
aI3542
aI8360
aI8366
aI4859
aI8018
aI1753
aI8198
aI1036
aI1426
aI567
aI8839
aI4995
aI10270
aI3288
aI2707
aI679
aI4335
aI8893
aI5161
aI11345
aI2785
aI2326
aI4019
aI5515
aI6802
aI1051
aI9735
aI6132
aI3553
aI9324
aI5244
aI2532
aI9220
aI3007
aI10980
aI7516
aI4813
aI5129
aI10748
aI5444
aI8131
aI4494
aI2976
aI11024
aI1880
aI3308
aI9440
aI7559
aI2180
aI8259
aI10533
aI1760
aI1604
aI7435
aI5394
aI8840
aI441
aI2299
aI1575
aI5929
aI6099
aI3608
aI2252
aI1957
aI2426
aI7212
aI10690
aI8300
aI4311
aI9401
aI7533
aI5372
aI4847
aI10510
aI11131
aI7482
aI348
aI8419
aI3070
aI3388
aI3051
aI7215
aI10842
aI662
aI6538
aI9111
aI1978
aI5147
aI3176
aI5396
aI10470
aI3164
aI9816
aI1442
aI5413
aI2625
aI589
aI1327
aI10882
aI5698
aI11097
aI8632
aI7851
aI1423
aI6738
aI7542
aI9167
aI5313
aI4549
aI10894
aI9991
aI10546
aI4133
aI8897
aI7109
aI5156
aI5679
aI629
aI6920
aI1902
aI6581
aI2288
aI10644
aI9560
aI8735
aI8494
aI10232
aI9973
aI7964
aI4491
aI1711
aI2316
aI6555
aI5027
aI6323
aI917
aI2911
aI8730
aI7374
aI2260
aI98
aI8411
aI6096
aI11247
aI10592
aI7136
aI9454
aI9071
aI1985
aI10099
aI3938
aI9961
aI422
aI2961
aI4569
aI10788
aI7878
aI5532
aI4508
aI5613
aI3754
aI9396
aI4456
aI10570
aI1561
aI11014
aI8418
aI2683
aI7555
aI3786
aI9383
aI3811
aI8752
aI7127
aI8183
aI1626
aI3598
aI8683
aI7805
aI7727
aI9427
aI371
aI8974
aI91
aI4485
aI10185
aI1273
aI5491
aI2387
aI3369
aI2537
aI2487
aI5601
aI4781
aI9008
aI450
aI1658
aI8727
aI6258
aI2002
aI5106
aI4400
aI9764
aI8124
aI9435
aI5953
aI1380
aI3895
aI7151
aI3867
aI4557
aI6776
aI5536
aI8166
aI9456
aI8701
aI519
aI7936
aI10683
aI782
aI3380
aI1871
aI7170
aI2721
aI7847
aI8814
aI10203
aI5186
aI9938
aI3126
aI7501
aI7856
aI3821
aI8164
aI11001
aI10013
aI7441
aI6847
aI5202
aI2485
aI11145
aI2295
aI1669
aI433
aI6855
aI10677
aI7484
aI6810
aI7279
aI2203
aI6355
aI1002
aI10148
aI5089
aI2604
aI11394
aI2329
aI10715
aI10989
aI4672
aI6573
aI8215
aI7373
aI9531
aI8874
aI6233
aI7001
aI22
aI119
aI1170
aI3953
aI10462
aI3924
aI9949
aI4563
aI8771
aI880
aI1476
aI11018
aI179
aI3944
aI10003
aI3886
aI10589
aI10154
aI10956
aI9413
aI4180
aI10716
aI1999
aI9705
aI9806
aI8196
aI7513
aI8452
aI5298
aI8838
aI4756
aI8582
aI5712
aI10443
aI8221
aI1328
aI10809
aI2239
aI5906
aI8953
aI6807
aI2105
aI4409
aI8501
aI5727
aI2281
aI4251
aI8913
aI273
aI3217
aI5026
aI9011
aI9684
aI10680
aI11356
aI8122
aI4558
aI3582
aI7988
aI9274
aI7107
aI8867
aI1228
aI10550
aI6563
aI5426
aI1199
aI689
aI2461
aI11375
aI10476
aI800
aI1216
aI1519
aI7678
aI2835
aI6867
aI2533
aI7428
aI6666
aI8249
aI2696
aI1079
aI6824
aI9962
aI7108
aI8257
aI702
aI6945
aI8402
aI10914
aI1930
aI9838
aI7334
aI7096
aI824
aI6347
aI11078
aI4636
aI4333
aI373
aI6148
aI3032
aI10872
aI7121
aI529
aI11318
aI6072
aI8972
aI9881
aI7314
aI4303
aI3135
aI9242
aI7103
aI3780
aI8368
aI8883
aI1953
aI4352
aI3778
aI10514
aI7930
aI4515
aI3788
aI6727
aI2719
aI10520
aI3864
aI7779
aI5503
aI7403
aI11233
aI11194
aI4730
aI156
aI1958
aI9459
aI7798
aI81
aI2077
aI4644
aI6206
aI7357
aI9976
aI542
aI5687
aI9511
aI5757
aI8165
aI9731
aI2863
aI4077
aI3040
aI946
aI11371
aI2053
aI5289
aI7198
aI11060
aI1383
aI4684
aI6826
aI4106
aI4502
aI5101
aI2110
aI5609
aI11197
aI2093
aI6421
aI5030
aI6495
aI71
aI9730
aI5517
aI7225
aI5014
aI8567
aI202
aI2617
aI9113
aI7596
aI4944
aI2591
aI461
aI4852
aI9686
aI4870
aI7576
aI942
aI6018
aI6160
aI10146
aI2122
aI5637
aI3151
aI9182
aI4812
aI9410
aI3163
aI10180
aI11041
aI11355
aI78
aI6955
aI5342
aI9472
aI4910
aI10234
aI222
aI7360
aI2362
aI4386
aI2657
aI10763
aI1885
aI4610
aI9769
aI1822
aI5751
aI3261
aI8597
aI7453
aI1430
aI5721
aI11203
aI7185
aI9708
aI5527
aI3659
aI5305
aI7508
aI9106
aI1661
aI2103
aI4277
aI9604
aI5607
aI5778
aI9179
aI4826
aI7414
aI5559
aI7816
aI6663
aI4803
aI7783
aI4819
aI2495
aI7426
aI2769
aI2232
aI10051
aI7751
aI9245
aI11084
aI11039
aI4602
aI9760
aI2125
aI5628
aI7747
aI7043
aI4867
aI7700
aI1673
aI5073
aI2224
aI11229
aI4535
aI5733
aI4434
aI10067
aI5680
aI9817
aI6500
aI4572
aI1865
aI1775
aI8687
aI7370
aI1872
aI142
aI9430
aI250
aI1162
aI6888
aI1386
aI9262
aI1578
aI3859
aI4597
aI7709
aI7652
aI4876
aI5696
aI1668
aI10613
aI268
aI1728
aI7658
aI8823
aI9219
aI9449
aI5594
aI1247
aI10750
aI3965
aI4893
aI3800
aI8666
aI11320
aI5010
aI9669
aI755
aI4966
aI8757
aI6952
aI3805
aI10123
aI10770
aI4913
aI9058
aI9256
aI4575
aI9412
aI5395
aI5734
aI9571
aI5690
aI6091
aI3107
aI6037
aI4358
aI1690
aI4437
aI8706
aI8464
aI8367
aI711
aI4663
aI9163
aI8629
aI3918
aI10664
aI6627
aI1776
aI2123
aI6300
aI7038
aI5921
aI6760
aI9608
aI3980
aI1976
aI4720
aI6758
aI10813
aI8834
aI10444
aI6208
aI2874
aI9843
aI6856
aI411
aI3283
aI10091
aI3680
aI4458
aI3166
aI3633
aI5015
aI3609
aI10173
aI4290
aI4041
aI5615
aI6178
aI9183
aI7161
aI9909
aI7717
aI1197
aI6848
aI7684
aI216
aI3310
aI5441
aI1781
aI7352
aI6523
aI1540
aI4359
aI8498
aI2088
aI6831
aI6193
aI2589
aI6393
aI6447
aI6697
aI2999
aI11101
aI7133
aI11111
aI1057
aI5506
aI10995
aI7896
aI2453
aI9120
aI10316
aI10417
aI561
aI1962
aI6422
aI10248
aI4967
aI6308
aI697
aI1334
aI33
aI4122
aI2897
aI5899
aI6825
aI4186
aI656
aI3383
aI7618
aI4074
aI2674
aI7478
aI5175
aI9747
aI10587
aI4480
aI6765
aI804
aI5235
aI4148
aI6691
aI224
aI10355
aI4147
aI3054
aI6837
aI8405
aI10406
aI3755
aI3001
aI757
aI4922
aI9778
aI7252
aI710
aI8350
aI1185
aI5823
aI3475
aI1018
aI6988
aI10793
aI2321
aI9722
aI5002
aI1146
aI7864
aI10293
aI10926
aI2964
aI11354
aI6119
aI9094
aI6385
aI6842
aI7217
aI9492
aI3180
aI7819
aI1534
aI4499
aI6471
aI9641
aI8755
aI10529
aI1772
aI7265
aI8329
aI10845
aI10006
aI644
aI1020
aI3214
aI3116
aI7500
aI6873
aI1225
aI3766
aI1674
aI8062
aI3170
aI5321
aI3042
aI8738
aI1235
aI7140
aI10189
aI2667
aI7883
aI11344
aI1977
aI3779
aI10425
aI7743
aI3722
aI11089
aI5656
aI7467
aI9491
aI1304
aI7659
aI7504
aI1332
aI3055
aI621
aI3316
aI174
aI3947
aI10369
aI7551
aI10327
aI1035
aI773
aI1326
aI1541
aI7793
aI1495
aI7268
aI8372
aI3017
aI8926
aI255
aI4708
aI2430
aI9922
aI1640
aI10153
aI3820
aI10506
aI8173
aI3465
aI5557
aI797
aI9748
aI5606
aI8194
aI5927
aI3632
aI1401
aI3394
aI10931
aI8057
aI3597
aI3710
aI3172
aI8960
aI1824
aI4069
aI2491
aI6245
aI5555
aI11109
aI7419
aI8807
aI9820
aI2616
aI5683
aI10757
aI1939
aI2422
aI1145
aI7380
aI9829
aI7240
aI871
aI9070
aI2647
aI5048
aI10110
aI1091
aI5477
aI7773
aI7634
aI6836
aI7368
aI9804
aI2112
aI10487
aI52
aI2706
aI340
aI7093
aI2784
aI2732
aI8141
aI5236
aI2301
aI4172
aI10825
aI8734
aI9193
aI12
aI7630
aI3130
aI2725
aI6789
aI11139
aI7448
aI516
aI1886
aI7080
aI10137
aI9506
aI2296
aI8534
aI9297
aI10389
aI7247
aI3670
aI5742
aI4052
aI6731
aI10708
aI6725
aI1122
aI9750
aI5717
aI9298
aI8276
aI4897
aI4736
aI5961
aI4272
aI286
aI9069
aI4486
aI538
aI8931
aI6336
aI3431
aI9047
aI2606
aI3131
aI7944
aI2497
aI9152
aI1971
aI4000
aI959
aI802
aI8799
aI2923
aI4582
aI3507
aI2074
aI4645
aI9361
aI5651
aI8212
aI9320
aI4844
aI10986
aI6230
aI423
aI9960
aI6022
aI4328
aI605
aI3816
aI8389
aI5216
aI6707
aI2091
aI3132
aI1782
aI10266
aI10561
aI11106
aI574
aI6179
aI4372
aI8918
aI10647
aI8410
aI6527
aI5357
aI2985
aI3084
aI1687
aI882
aI11295
aI11104
aI5521
aI6497
aI11232
aI1008
aI1351
aI1352
aI5179
aI3037
aI6354
aI3664
aI10791
aI5692
aI1511
aI9837
aI328
aI8407
aI1044
aI6416
aI10625
aI312
aI5611
aI1696
aI1256
aI11359
aI3469
aI3092
aI7873
aI3334
aI5231
aI10204
aI1234
aI593
aI9918
aI3619
aI9813
aI11225
aI9515
aI5499
aI5362
aI7850
aI3447
aI7323
aI5004
aI3175
aI2560
aI5665
aI10413
aI4740
aI1011
aI8996
aI10576
aI10981
aI3600
aI2310
aI8641
aI3803
aI7150
aI7336
aI3110
aI8949
aI4288
aI1292
aI640
aI10272
aI874
aI7914
aI4196
aI3259
aI1130
aI6073
aI521
aI3158
aI8788
aI292
aa(lp8
I4661
aI2613
aI8495
aI2522
aI4937
aI9931
aI10902
aI388
aI3604
aI9670
aI8457
aI7754
aI11386
aI10334
aI7968
aI6661
aI6261
aI5914
aI11254
aI10379
aI180
aI5586
aI3890
aI1601
aI8001
aI7777
aI4525
aI6373
aI2191
aI4811
aI4032
aI8578
aI6407
aI32
aI4354
aI4599
aI7832
aI5652
aI1619
aI7476
aI11220
aI3159
aI7604
aI380
aI3299
aI3012
aI2428
aI7925
aI3798
aI2715
aI9818
aI9125
aI10895
aI1646
aI4015
aI7943
aI9519
aI4968
aI8201
aI666
aI3363
aI10401
aI1742
aI8316
aI8944
aI6818
aI634
aI10985
aI2975
aI5329
aI9965
aI1070
aI5784
aI3322
aI5718
aI9468
aI8438
aI2149
aI8403
aI3739
aI9480
aI6917
aI819
aI3077
aI6377
aI9159
aI114
aI10920
aI8515
aI2627
aI7503
aI5550
aI5096
aI7144
aI674
aI4146
aI927
aI7454
aI9587
aI10001
aI5662
aI6784
aI5075
aI1064
aI7014
aI2978
aI6874
aI10582
aI10948
aI10507
aI1525
aI285
aI8086
aI7259
aI10213
aI6437
aI7562
aI7179
aI289
aI1207
aI6482
aI2243
aI2971
aI779
aI10684
aI6186
aI703
aI9126
aI2059
aI9799
aI4620
aI5591
aI7450
aI6659
aI2907
aI1462
aI7069
aI494
aI8230
aI907
aI3212
aI3741
aI6779
aI6600
aI9753
aI6092
aI8029
aI10435
aI270
aI186
aI2250
aI11352
aI10262
aI283
aI6650
aI2709
aI4827
aI3987
aI10
aI8473
aI6522
aI6364
aI5442
aI5840
aI10136
aI2579
aI8139
aI823
aI7865
aI4113
aI7719
aI10711
aI10501
aI6269
aI9924
aI5523
aI8787
aI8260
aI3661
aI6822
aI7528
aI8222
aI7794
aI5707
aI5416
aI2307
aI10604
aI3836
aI4264
aI8819
aI3436
aI5408
aI409
aI1212
aI9260
aI7901
aI7662
aI1244
aI4262
aI4945
aI650
aI5354
aI6031
aI5993
aI1637
aI1581
aI2745
aI3123
aI249
aI11235
aI8270
aI6909
aI5452
aI6834
aI7013
aI7046
aI8321
aI3011
aI5029
aI10257
aI5924
aI6463
aI4977
aI4932
aI6263
aI8653
aI7431
aI4829
aI3888
aI8677
aI4377
aI1067
aI6142
aI3677
aI10668
aI10082
aI4882
aI3638
aI7962
aI1763
aI10182
aI2240
aI11290
aI2700
aI10477
aI9171
aI3165
aI1114
aI3284
aI5227
aI6729
aI3492
aI2083
aI2258
aI8703
aI11215
aI1480
aI4080
aI9358
aI5286
aI7251
aI3277
aI1596
aI8365
aI3500
aI3312
aI5382
aI9524
aI66
aI5082
aI8469
aI7758
aI4471
aI4084
aI5854
aI10362
aI8619
aI3970
aI4216
aI5039
aI11399
aI3605
aI10427
aI2331
aI5556
aI1344
aI4182
aI2081
aI10745
aI2636
aI9490
aI8940
aI1384
aI2637
aI3423
aI9582
aI2099
aI7141
aI5578
aI1614
aI5218
aI3399
aI4319
aI8297
aI7018
aI706
aI11200
aI8742
aI6140
aI11161
aI8181
aI10821
aI9425
aI2359
aI2222
aI3295
aI4512
aI6047
aI8038
aI1505
aI5388
aI560
aI8461
aI5421
aI813
aI6209
aI2777
aI4394
aI8975
aI479
aI920
aI671
aI3812
aI783
aI5181
aI9547
aI10388
aI2421
aI816
aI7802
aI11244
aI4058
aI5876
aI5940
aI5094
aI3694
aI1029
aI4814
aI9597
aI3508
aI10936
aI4779
aI11226
aI2609
aI10761
aI3435
aI4725
aI2315
aI8168
aI11051
aI326
aI9192
aI9237
aI4111
aI2106
aI11392
aI3651
aI2949
aI9092
aI9166
aI6596
aI7496
aI3047
aI11230
aI11155
aI11144
aI3015
aI10495
aI4187
aI6078
aI2276
aI1449
aI2914
aI4833
aI7444
aI7154
aI10107
aI3204
aI8816
aI4339
aI6001
aI9827
aI2386
aI3490
aI9180
aI11369
aI1041
aI5140
aI3139
aI8113
aI10281
aI9128
aI10223
aI6218
aI7753
aI7075
aI2049
aI1864
aI6879
aI570
aI4960
aI9391
aI9902
aI7841
aI1345
aI10741
aI10697
aI5103
aI11307
aI4381
aI3909
aI8255
aI4521
aI2502
aI10891
aI4511
aI8202
aI6036
aI6730
aI6498
aI7511
aI4839
aI339
aI5627
aI124
aI5678
aI5285
aI4799
aI46
aI2200
aI9259
aI85
aI8496
aI517
aI3147
aI11353
aI7603
aI4171
aI8264
aI3489
aI5405
aI10654
aI9488
aI2793
aI9135
aI5669
aI3347
aI741
aI1264
aI7867
aI3602
aI9422
aI9596
aI3761
aI4168
aI10752
aI9148
aI11126
aI5376
aI912
aI3882
aI2356
aI3709
aI10052
aI4047
aI11166
aI3108
aI1030
aI1061
aI10429
aI534
aI5468
aI9046
aI6141
aI4454
aI3487
aI271
aI1856
aI4849
aI1589
aI3365
aI4247
aI5820
aI1040
aI6636
aI5983
aI5583
aI5711
aI5284
aI2480
aI6797
aI7326
aI5230
aI851
aI3081
aI2290
aI6525
aI7738
aI4030
aI4626
aI3550
aI5509
aI7781
aI9527
aI1842
aI9959
aI9921
aI10338
aI4302
aI4722
aI5169
aI4342
aI3828
aI2823
aI1813
aI982
aI3137
aI2397
aI11221
aI318
aI9990
aI2153
aI10121
aI9978
aI5053
aI3539
aI4104
aI3760
aI9429
aI6372
aI2523
aI9945
aI5864
aI9529
aI8154
aI443
aI1049
aI2642
aI1907
aI11075
aI602
aI9626
aI4514
aI2541
aI10194
aI7775
aI6143
aI221
aI10898
aI10454
aI4292
aI780
aI9028
aI2169
aI1315
aI8627
aI10255
aI7050
aI8272
aI8682
aI2817
aI3066
aI8639
aI5710
aI10657
aI523
aI2828
aI7378
aI7052
aI7524
aI5454
aI2058
aI10122
aI7260
aI10002
aI10596
aI29
aI3784
aI8557
aI5263
aI7655
aI2660
aI4129
aI7866
aI5538
aI8472
aI4682
aI10548
aI749
aI1255
aI996
aI2837
aI11217
aI3692
aI4633
aI10976
aI778
aI9477
aI9432
aI8398
aI4908
aI1233
aI10432
aI3696
aI7791
aI3250
aI5563
aI10317
aI8743
aI11129
aI10783
aI4029
aI2779
aI2075
aI6380
aI2177
aI1433
aI7918
aI9842
aI9218
aI4244
aI3789
aI1210
aI4361
aI531
aI8471
aI6610
aI6346
aI5475
aI8335
aI7455
aI4376
aI8890
aI8759
aI8128
aI10887
aI9269
aI10505
aI4203
aI11004
aI6274
aI11072
aI6748
aI10675
aI189
aI646
aI9338
aI4034
aI7183
aI4167
aI5370
aI6415
aI4117
aI9834
aI1774
aI1539
aI2336
aI2671
aI844
aI918
aI5269
aI6884
aI227
aI6202
aI4327
aI964
aI10893
aI4837
aI8252
aI1261
aI5418
aI466
aI5220
aI956
aI4046
aI536
aI96
aI1983
aI8031
aI558
aI10195
aI4392
aI7784
aI8145
aI11023
aI510
aI2697
aI3452
aI2449
aI7362
aI9277
aI1800
aI6401
aI968
aI256
aI4130
aI8174
aI3934
aI1397
aI9908
aI4997
aI7960
aI3932
aI6184
aI4577
aI5249
aI4374
aI5258
aI7550
aI444
aI6343
aI10242
aI3387
aI9509
aI3707
aI860
aI4732
aI9552
aI9835
aI7091
aI8530
aI1709
aI10331
aI346
aI8888
aI4785
aI7383
aI5332
aI3716
aI10102
aI2831
aI8821
aI11401
aI7261
aI11012
aI405
aI5892
aI9233
aI10024
aI1097
aI9517
aI4985
aI8904
aI9374
aI11064
aI827
aI2215
aI10395
aI7148
aI1738
aI3014
aI10347
aI7316
aI5248
aI4426
aI8866
aI6965
aI1632
aI9095
aI10354
aI3275
aI2880
aI618
aI750
aI10139
aI7181
aI9290
aI8278
aI6575
aI1810
aI7657
aI2857
aI6976
aI157
aI7029
aI3301
aI6331
aI3951
aI10928
aI6540
aI105
aI5870
aI4841
aI10291
aI6244
aI2084
aI6199
aI7157
aI1916
aI8811
aI3616
aI5667
aI6174
aI2126
aI9679
aI2193
aI9875
aI4179
aI6257
aI7767
aI10518
aI978
aI8068
aI10197
aI1096
aI1331
aI10559
aI7094
aI322
aI8934
aI3743
aI398
aI4642
aI1876
aI2354
aI2759
aI5486
aI5309
aI4753
aI4100
aI377
aI7999
aI9075
aI993
aI10159
aI7375
aI10802
aI10287
aI2115
aI8968
aI6260
aI8905
aI1841
aI5335
aI5979
aI10633
aI9855
aI2120
aI3129
aI7592
aI3566
aI11183
aI8544
aI5019
aI8146
aI9564
aI1182
aI6585
aI7273
aI4383
aI23
aI11185
aI8129
aI5467
aI9154
aI5139
aI2635
aI3168
aI1271
aI8914
aI3655
aI10320
aI2865
aI401
aI8355
aI9393
aI5166
aI2534
aI10742
aI11304
aI3937
aI7287
aI9793
aI7813
aI2005
aI591
aI5772
aI10586
aI9389
aI1203
aI8555
aI3133
aI7294
aI4127
aI1609
aI11383
aI5608
aI8315
aI5639
aI7623
aI1262
aI4665
aI4848
aI2885
aI2226
aI8654
aI5375
aI10250
aI7490
aI8865
aI9700
aI4384
aI4449
aI7631
aI6828
aI2351
aI6384
aI301
aI6557
aI11180
aI1330
aI4120
aI1095
aI2235
aI7446
aI8396
aI7278
aI3207
aI7672
aI2098
aI6216
aI4737
aI9874
aI10214
aI6623
aI4002
aI3238
aI9701
aI653
aI1045
aI7037
aI8518
aI5037
aI1597
aI7702
aI8328
aI9671
aI9516
aI552
aI7725
aI1497
aI2939
aI6635
aI4393
aI7792
aI1415
aI4496
aI7358
aI167
aI1778
aI10342
aI990
aI8346
aI5268
aI4650
aI8226
aI4195
aI4921
aI478
aI4325
aI7003
aI7726
aI4413
aI4978
aI9284
aI2274
aI10696
aI5276
aI2343
aI10896
aI9240
aI11227
aI7499
aI10256
aI1806
aI8340
aI8077
aI3174
aI2121
aI8754
aI7488
aI10632
aI6227
aI4388
aI8600
aI9130
aI7125
aI2016
aI8041
aI1793
aI8795
aI6324
aI1515
aI3682
aI2413
aI1905
aI4095
aI9469
aI1663
aI6478
aI10323
aI566
aI9695
aI2208
aI2393
aI123
aI5402
aI883
aI10877
aI5941
aI10673
aI7276
aI10424
aI2131
aI10166
aI3223
aI6706
aI10026
aI2241
aI8455
aI6085
aI9563
aI7344
aI9783
aI3086
aI5032
aI1503
aI481
aI8245
aI565
aI10795
aI350
aI3103
aI8815
aI10201
aI7298
aI7304
aI11282
aI9323
aI9858
aI587
aI3823
aI10306
aI8099
aI1024
aI8575
aI8015
aI8169
aI908
aI7772
aI5016
aI4762
aI8112
aI10616
aI1562
aI2406
aI1028
aI5697
aI972
aI1457
aI7570
aI4770
aI9744
aI7269
aI1465
aI5209
aI4065
aI6601
aI1191
aI215
aI11413
aI9200
aI9650
aI10637
aI8025
aI8088
aI9727
aI269
aI2967
aI1489
aI1919
aI8957
aI10952
aI9278
aI7347
aI357
aI11053
aI6580
aI4350
aI8363
aI136
aI8377
aI8205
aI9963
aI10646
aI8714
aI507
aI11222
aI9387
aI5991
aI6890
aI6284
aI306
aI3481
aI185
aI90
aI4332
aI150
aI72
aI6830
aI4368
aI9076
aI4641
aI8579
aI8719
aI774
aI4639
aI10835
aI2266
aI7939
aI5661
aI6039
aI11193
aI80
aI5193
aI2810
aI2261
aI5861
aI4087
aI8312
aI10208
aa(lp9
I3919
aI4588
aI3644
aI5056
aI8430
aI7083
aI4991
aI5663
aI7814
aI10479
aI3409
aI8394
aI10629
aI1427
aI6971
aI3416
aI6361
aI3775
aI4600
aI8510
aI45
aI9019
aI438
aI3854
aI769
aI1717
aI9594
aI8665
aI2022
aI11385
aI744
aI2181
aI522
aI4934
aI2071
aI9971
aI8793
aI4318
aI11390
aI2478
aI6823
aI5821
aI2364
aI11022
aI8213
aI1133
aI3585
aI10973
aI1058
aI9191
aI5818
aI1701
aI3569
aI3654
aI120
aI3634
aI416
aI5894
aI6081
aI1577
aI2
aI8970
aI8540
aI6473
aI5526
aI3514
aI5599
aI5177
aI4632
aI5083
aI8415
aI6552
aI2713
aI7343
aI83
aI7190
aI4067
aI1607
aI6893
aI10512
aI4988
aI6998
aI5104
aI4137
aI4918
aI2734
aI2711
aI2536
aI2024
aI8192
aI5171
aI6756
aI6329
aI5042
aI1735
aI936
aI10531
aI2977
aI8976
aI5400
aI654
aI6104
aI4153
aI9521
aI7984
aI6351
aI3480
aI1686
aI5163
aI6392
aI11204
aI8301
aI2594
aI2411
aI554
aI1363
aI10832
aI3362
aI8337
aI3358
aI1943
aI722
aI9890
aI952
aI4066
aI42
aI7204
aI10158
aI9291
aI6425
aI2265
aI9807
aI6928
aI3849
aI6207
aI9003
aI836
aI2205
aI3894
aI9785
aI11044
aI9840
aI8674
aI903
aI1132
aI9781
aI1858
aI9368
aI7057
aI4110
aI5115
aI4612
aI7842
aI1379
aI904
aI7697
aI7871
aI5353
aI6367
aI6535
aI8966
aI2983
aI4704
aI6872
aI6529
aI293
aI1137
aI4930
aI2237
aI6572
aI10658
aI6989
aI5946
aI6503
aI485
aI7593
aI491
aI10174
aI74
aI508
aI7048
aI453
aI3046
aI9402
aI4059
aI9680
aI11350
aI2438
aI6744
aI1159
aI10740
aI9050
aI8138
aI5145
aI3248
aI10968
aI7459
aI5159
aI5860
aI1900
aI8054
aI8605
aI5259
aI1853
aI1127
aI8217
aI3177
aI8980
aI10313
aI14
aI6851
aI10075
aI9057
aI7534
aI6226
aI7223
aI6796
aI10361
aI10659
aI38
aI7389
aI337
aI9877
aI4338
aI6621
aI3749
aI4211
aI7809
aI8623
aI8708
aI2108
aI4419
aI2322
aI10243
aI1023
aI1005
aI10661
aI10365
aI4513
aI5201
aI947
aI10732
aI11412
aI10330
aI8468
aI8750
aI9578
aI10801
aI1737
aI2649
aI3639
aI10184
aI2007
aI3344
aI10260
aI8323
aI1966
aI2658
aI1794
aI58
aI7329
aI603
aI5060
aI3338
aI9292
aI6352
aI410
aI2747
aI3794
aI7255
aI1372
aI6690
aI134
aI4275
aI8081
aI9715
aI3202
aI9235
aI1567
aI7256
aI7685
aI8710
aI418
aI1308
aI5213
aI8097
aI10420
aI11374
aI3424
aI1116
aI3931
aI2676
aI10171
aI9307
aI2306
aI2693
aI2932
aI1949
aI7687
aI9757
aI2854
aI10885
aI1745
aI7012
aI3294
aI3457
aI11216
aI11391
aI4892
aI11269
aI6238
aI2730
aI1163
aI4618
aI595
aI6550
aI8251
aI6066
aI6456
aI1924
aI4874
aI3034
aI7732
aI2507
aI9737
aI4108
aI5221
aI746
aI6003
aI1736
aI9777
aI1649
aI6715
aI6171
aI287
aI5871
aI8406
aI1356
aI103
aI8836
aI2353
aI3628
aI1798
aI4036
aI2431
aI5479
aI3461
aI5616
aI7302
aI1337
aI4570
aI9279
aI8399
aI4373
aI10945
aI11376
aI5122
aI8758
aI4911
aI4038
aI7228
aI5882
aI9210
aI2344
aI2179
aI8699
aI9037
aI1955
aI8014
aI10440
aI8463
aI387
aI6676
aI4435
aI7673
aI8093
aI1714
aI9894
aI2953
aI638
aI988
aI1893
aI3353
aI1997
aI4964
aI10970
aI2425
aI10839
aI5078
aI10045
aI5825
aI6502
aI9648
aI5684
aI3923
aI2207
aI9953
aI5561
aI4455
aI9067
aI3732
aI7135
aI2027
aI1080
aI7955
aI6248
aI9676
aI8258
aI6578
aI10605
aI10337
aI6977
aI2659
aI9645
aI1897
aI2906
aI2279
aI4506
aI3662
aI3814
aI2705
aI9109
aI2799
aI2253
aI1143
aI1282
aI7063
aI2287
aI8948
aI5797
aI2404
aI9199
aI3936
aI274
aI9929
aI7843
aI7137
aI7525
aI11192
aI4629
aI8761
aI10119
aI10336
aI9836
aI10880
aI4825
aI831
aI2575
aI8289
aI5238
aI5911
aI5327
aI2013
aI4135
aI2100
aI10749
aI10917
aI331
aI3074
aI1219
aI235
aI1056
aI9146
aI3748
aI5465
aI3898
aI7815
aI6489
aI4140
aI9926
aI3470
aI7299
aI9417
aI8827
aI5693
aI4446
aI682
aI454
aI7132
aI5589
aI5088
aI10674
aI5434
aI2320
aI1033
aI9782
aI1624
aI3502
aI1642
aI9534
aI3430
aI1147
aI3945
aI1117
aI9526
aI3810
aI11300
aI974
aI7421
aI2037
aI3406
aI9132
aI191
aI9438
aI8206
aI4907
aI165
aI1470
aI10982
aI7102
aI1003
aI10853
aI5686
aI10927
aI11378
aI3723
aI6658
aI6288
aI6662
aI3817
aI2441
aI8985
aI7969
aI7742
aI609
aI4831
aI5330
aI6419
aI3111
aI4017
aI839
aI1124
aI3801
aI3466
aI752
aI8466
aI4675
aI5945
aI2349
aI10212
aI2067
aI11299
aI21
aI1799
aI9968
aI6937
aI8990
aI3304
aI7581
aI3603
aI1105
aI8767
aI2689
aI2525
aI4349
aI2833
aI1585
aI7590
aI5066
aI7573
aI244
aI7893
aI611
aI3405
aI6212
aI4615
aI6146
aI9134
aI1026
aI6155
aI5805
aI3773
aI9322
aI3134
aI6925
aI3720
aI8535
aI7950
aI3044
aI7264
aI8094
aI975
aI5722
aI5348
aI3874
aI2800
aI11333
aI10216
aI8332
aI4707
aI7189
aI7116
aI1177
aI6049
aI5809
aI324
aI5093
aI6651
aI5470
aI483
aI8441
aI7906
aI2340
aI7232
aI2736
aI6843
aI390
aI11271
aI10156
aI11339
aI5896
aI5341
aI10542
aI8851
aI5174
aI3303
aI9059
aI8123
aI4402
aI1825
aI873
aI9044
aI4185
aI3537
aI3930
aI2614
aI7797
aI9522
aI588
aI1761
aI7712
aI9808
aI10767
aI5938
aI5339
aI9281
aI4138
aI1183
aI6165
aI10552
aI5787
aI6164
aI945
aI8378
aI8896
aI4871
aI10460
aI822
aI8374
aI670
aI3544
aI2210
aI1527
aI1263
aI2708
aI7322
aI4417
aI10143
aI2138
aI10016
aI7445
aI8616
aI8395
aI1260
aI1605
aI1083
aI7991
aI6083
aI5484
aI7580
aI3124
aI9051
aI10055
aI1055
aI11330
aI7206
aI4738
aI7718
aI8902
aI2988
aI5908
aI362
aI2611
aI262
aI3764
aI8111
aI200
aI7862
aI3994
aI158
aI1879
aI1733
aI10595
aI1373
aI1148
aI5099
aI5049
aI2109
aI9532
aI9928
aI9366
aI6125
aI1140
aI10271
aI10133
aI10823
aI257
aI2782
aI4873
aI7220
aI9602
aI11236
aI4729
aI11120
aI7077
aI9725
aI10888
aI2236
aI2821
aI6063
aI3913
aI4442
aI1536
aI8207
aI2069
aI1104
aI10649
aI1010
aI3112
aI10856
aI2843
aI6799
aI9864
aI2124
aI9575
aI2072
aI643
aI7007
aI1409
aI1502
aI1246
aI2048
aI1756
aI154
aI9287
aI1198
aI8351
aI69
aI3815
aI7342
aI10321
aI7558
aI10602
aI8809
aI6311
aI5090
aI5390
aI2809
aI9216
aI9706
aI3418
aI8191
aI8244
aI6669
aI9489
aI1653
aI1424
aI3479
aI486
aI7762
aI10947
aI3916
aI11334
aI3326
aI5581
aI699
aI3244
aI4440
aI5463
aI11370
aI10383
aI5095
aI367
aI2273
aI1414
aI962
aI3272
aI7945
aI7011
aI7800
aI9733
aI5485
aI4200
aI10606
aI9496
aI8576
aI709
aI8702
aI9203
aI1237
aI2038
aI9155
aI6188
aI9933
aI11061
aI9540
aI7776
aI8762
aI6642
aI5495
aI562
aI6564
aI10957
aI845
aI11103
aI5328
aI10480
aI2829
aI585
aI5045
aI2190
aI2104
aI7632
aI11335
aI4312
aI676
aI11151
aI8717
aI5501
aI7056
aI4861
aI2157
aI5331
aI3064
aI10535
aI2819
aI11306
aI573
aI8962
aI8392
aI971
aI209
aI1043
aI9175
aI7486
aI9502
aI10061
aI11062
aI3952
aI11178
aI2847
aI473
aI10451
aI1909
aI9746
aI230
aI5367
aI4078
aI8695
aI112
aI1967
aI1570
aI6211
aI11266
aI10984
aI2968
aI6266
aI2619
aI6133
aI5985
aI2893
aI5337
aI9063
aI10445
aI2255
aI777
aI10404
aI2221
aI2377
aI3211
aI5802
aI525
aI11319
aI2030
aI10890
aI2503
aI11071
aI1342
aI5148
aI122
aI3607
aI4479
aI3715
aI4042
aI1031
aI7331
aI2738
aI9457
aI10608
aI3072
aI2861
aI6397
aI8248
aI9178
aI7416
aI1230
aI7214
aI11258
aI4250
aI9325
aI4818
aI9455
aI5260
aI3756
aI4590
aI4380
aI7904
aI51
aI5845
aI6297
aI7462
aI4715
aI841
aI9609
aI11243
aI8314
aI7574
aI5786
aI2638
aI3671
aI10720
aI56
aI7541
aI4627
aI8414
aI6052
aI3341
aI10713
aI8604
aI4225
aI9018
aI5650
aI5688
aI3235
aI5204
aI7765
aI7535
aI2827
aI10407
aI3324
aI1403
aI2894
aI5903
aI8899
aI5409
aI228
aI10050
aI9145
aI11011
aI1491
aI3236
aI9911
aI9243
aI193
aI8748
aI272
aI2455
aI2134
aI7643
aI3218
aI5949
aI5253
aI8274
aI3149
aI11174
aI5853
aI6134
aI2285
aI10993
aI9791
aI9234
aI7295
aI9461
aI5913
aI4293
aI10955
aI6468
aI3106
aI8935
aI5963
aI5977
aI3282
aI9958
aI6224
aI11079
aI9447
aI8247
aI3352
aI4365
aI6511
aI9854
aI5838
aI8349
aI2466
aI3101
aI8155
aI9906
aI4489
aI11261
aI6054
aI9657
aI489
aI5617
aI9372
aI2780
aI3631
aI6602
aI10346
aI10269
aI944
aI7330
aI379
aI3625
aI8635
aI6320
aI11316
aI2558
aI6059
aI4716
aI10815
aI7926
aI10871
aI7398
aI1741
aI2904
aI3866
aI1991
aI9498
aI7935
aI4181
aI5747
aI2396
aI471
aI1484
aI2888
aI6443
aI4981
aI7848
aI9107
aI772
aI8435
aI6545
aI10183
aI8545
aI2420
aI4783
aI8621
aI3045
aI3453
aI1453
aI11380
aI6536
aI3641
aI3263
aI7803
aI575
aI5121
aI9703
aI6490
aI3404
aI6543
aI10040
aI3769
aI2543
aI3783
aI6626
aI1526
aI3912
aI4224
aI3658
aI5208
aI4630
aI4090
aI11076
aI6982
aI6509
aI4787
aI6929
aI9786
aI8119
aI1341
aI10168
aI10666
aI6933
aI2972
aI10418
aI11168
aI8502
aI2201
aI11366
aI3976
aI753
aI5984
aI7650
aI958
aI6861
aI3319
aI5569
aI10943
aI2901
aI1464
aI4962
aI11118
aI8324
aI8825
aI9441
aI4547
aI9122
aI3483
aI9904
aI8090
aI1288
aI10410
aI5848
aI2729
aI7761
aI10756
aI4975
aI7451
aI9553
aI5978
aI2269
aI490
aI9690
aI5852
aI4003
aI11410
aI7599
aI2563
aI8837
aI1125
aa(lp10
I2282
aI1684
aI6341
aI9792
aI6769
aI6553
aI2896
aI9397
aI3187
aI9177
aI205
aI3640
aI9504
aI3799
aI10010
aI4245
aI9345
aI10108
aI10828
aI9584
aI4239
aI5668
aI10938
aI3448
aI6630
aI7868
aI5695
aI4539
aI5012
aI2417
aI3904
aI2938
aI7998
aI4093
aI3006
aI9253
aI8933
aI9742
aI9702
aI6062
aI2877
aI4453
aI4777
aI4088
aI8854
aI3758
aI10634
aI8434
aI1037
aI2549
aI9195
aI9493
aI9810
aI7138
aI6281
aI11408
aI11202
aI5364
aI1081
aI4018
aI754
aI898
aI11277
aI10627
aI8569
aI5947
aI6109
aI4822
aI6262
aI725
aI1555
aI987
aI6210
aI8519
aI10164
aI3031
aI218
aI6051
aI10009
aI421
aI420
aI739
aI10481
aI10591
aI5674
aI6121
aI1784
aI8711
aI6921
aI1142
aI6316
aI7752
aI1012
aI1048
aI3317
aI1959
aI9678
aI9589
aI10397
aI8320
aI4553
aI4389
aI6887
aI10093
aI6479
aI6007
aI9339
aI8506
aI5643
aI2882
aI5551
aI2325
aI9846
aI10060
aI3473
aI7413
aI3432
aI2553
aI1622
aI5966
aI8871
aI3422
aI6157
aI3090
aI7095
aI11245
aI6950
aI3185
aI9110
aI9341
aI4452
aI1472
aI8978
aI452
aI1167
aI3080
aI6046
aI4687
aI9333
aI6752
aI9525
aI11036
aI9161
aI4884
aI9844
aI8987
aI68
aI10491
aI3527
aI7951
aI1832
aI7715
aI1258
aI8357
aI4403
aI8551
aI11286
aI557
aI2170
aI9649
aI4398
aI5522
aI8749
aI1364
aI3844
aI7244
aI8910
aI4768
aI5310
aI10949
aI10246
aI10298
aI6986
aI10382
aI1894
aI8756
aI6932
aI5167
aI5856
aI7629
aI10363
aI3440
aI7364
aI6787
aI9190
aI10607
aI8668
aI5603
aI2690
aI6754
aI5232
aI2826
aI2044
aI10283
aI11384
aI10904
aI10679
aI1629
aI734
aI1134
aI6058
aI9672
aI7319
aI10859
aI10364
aI10500
aI6576
aI3516
aI5588
aI288
aI3672
aI892
aI6015
aI8598
aI4765
aI8037
aI10240
aI3025
aI3740
aI7485
aI4947
aI5211
aI2514
aI9981
aI5064
aI10465
aI5283
aI9935
aI9419
aI7810
aI9631
aI6782
aI2129
aI9194
aI6673
aI7785
aI10095
aI9083
aI236
aI9127
aI8306
aI6472
aI8497
aI10017
aI3725
aI5118
aI3967
aI10619
aI2283
aI6252
aI10614
aI4769
aI7625
aI4399
aI6962
aI8528
aI5127
aI10367
aI137
aI5798
aI10662
aI7660
aI2482
aI237
aI5549
aI704
aI2407
aI1840
aI11152
aI4731
aI5436
aI7404
aI2595
aI2363
aI10999
aI5113
aI10311
aI8490
aI8327
aI7750
aI8739
aI11397
aI10846
aI520
aI2855
aI7898
aI9415
aI3486
aI8988
aI1543
aI7112
aI8772
aI3774
aI9170
aI7174
aI1257
aI3203
aI5813
aI1151
aI3410
aI961
aI266
aI6949
aI2178
aI10251
aI7637
aI9936
aI8513
aI2723
aI5323
aI2754
aI798
aI7701
aI5261
aI2603
aI9627
aI5625
aI7461
aI4915
aI606
aI7241
aI9566
aI8254
aI10433
aI8334
aI5504
aI10422
aI4050
aI8055
aI1584
aI7828
aI5365
aI2762
aI2057
aI4158
aI1650
aI6791
aI7597
aI4815
aI4484
aI8859
aI3870
aI766
aI549
aI1290
aI1792
aI10278
aI7237
aI11046
aI5318
aI4438
aI8193
aI7438
aI5055
aI11133
aI1474
aI1303
aI10656
aI6156
aI4305
aI8651
aI8646
aI5272
aI7557
aI6724
aI5326
aI3360
aI10023
aI10524
aI4268
aI10310
aI5319
aI1759
aI1240
aI3528
aI10393
aI5836
aI4516
aI6732
aI181
aI3884
aI5256
aI3693
aI7663
aI4679
aI1883
aI9286
aI2590
aI2292
aI2529
aI5655
aI9151
aI9354
aI8240
aI7084
aI11292
aI341
aI455
aI1496
aI8040
aI6570
aI8326
aI9153
aI3361
aI465
aI9970
aI11324
aI1201
aI9330
aI9870
aI5111
aI10275
aI9639
aI4690
aI4334
aI8841
aI768
aI9636
aI9882
aI1631
aI7073
aI8003
aI7169
aI6931
aI419
aI4428
aI2858
aI10419
aI5729
aI3459
aI11389
aI5081
aI9096
aI10126
aI10438
aI4191
aI5685
aI5602
aI2859
aI5829
aI1294
aI4433
aI5379
aI7280
aI6637
aI376
aI10238
aI661
aI9049
aI8227
aI7876
aI6620
aI1265
aI3878
aI1108
aI909
aI6934
aI1084
aI1508
aI2561
aI355
aI8002
aI2991
aI544
aI1802
aI8764
aI10933
aI6750
aI5264
aI10951
aI8538
aI8723
aI8894
aI11068
aI6674
aI1111
aI2056
aI3853
aI6757
aI580
aI10532
aI3233
aI2448
aI6978
aI8069
aI10964
aI437
aI8547
aI1698
aI3096
aI7399
aI9721
aI8609
aI7771
aI11128
aI5548
aI2493
aI10671
aI8361
aI3984
aI8492
aI3858
aI7766
aI3960
aI4856
aI8045
aI8236
aI7139
aI2220
aI2742
aI5138
aI6999
aI4291
aI6012
aI320
aI6301
aI5490
aI6696
aI2765
aI9845
aI5224
aI833
aI9815
aI4081
aI3354
aI504
aI6004
aI8645
aI5428
aI6002
aI6317
aI2935
aI9017
aI265
aI10309
aI8892
aI3649
aI11242
aI3978
aI8680
aI3169
aI3205
aI10718
aI5883
aI7234
aI5937
aI950
aI5168
aI6008
aI7468
aI2360
aI1017
aI2633
aI6613
aI10264
aI10504
aI1831
aI6780
aI8731
aI4863
aI1751
aI1009
aI7827
aI10760
aI8924
aI30
aI8200
aI1817
aI5448
aI498
aI9851
aI7689
aI2989
aI1074
aI1866
aI6177
aI5593
aI8790
aI1252
aI6386
aI6335
aI1697
aI5774
aI2910
aI9556
aI10054
aI6819
aI162
aI6435
aI4037
aI8716
aI169
aI11119
aI8512
aI10819
aI4360
aI4497
aI1846
aI1174
aI1877
aI10247
aI5666
aI4742
aI4681
aI7079
aI212
aI2662
aI8250
aI4132
aI1460
aI7669
aI8362
aI8751
aI4619
aI10188
aI1606
aI1101
aI6639
aI2219
aI147
aI4234
aI1821
aI7277
aI6107
aI3478
aI4279
aI5573
aI6492
aI8091
aI6410
aI537
aI9248
aI5018
aI1438
aI5472
aI10351
aI1333
aI683
aI8797
aI4467
aI7098
aI9064
aI1779
aI4556
aI9055
aI9860
aI10799
aI897
aI2684
aI7367
aI4579
aI2681
aI10268
aI4896
aI9206
aI6221
aI10978
aI5345
aI7552
aI3328
aI10219
aI3193
aI1603
aI8782
aI5658
aI4727
aI8073
aI8675
aI5928
aI2472
aI3381
aI95
aI7768
aI8310
aI7483
aI3437
aI11207
aI5497
aI6088
aI9460
aI3122
aI11393
aI607
aI4408
aI3717
aI3573
aI4466
aI965
aI1591
aI7201
aI2867
aI3846
aI10030
aI1801
aI2607
aI6764
aI6326
aI1310
aI368
aI1860
aI7971
aI7664
aI2196
aI10794
aI8946
aI1938
aI9156
aI7617
aI9599
aI4115
aI5713
aI430
aI10942
aI8307
aI1166
aI6987
aI8269
aI5355
aI7101
aI4031
aI2673
aI3196
aI2934
aI1019
aI1986
aI9116
aI2998
aI4136
aI3744
aI9997
aI849
aI856
aI3442
aI9989
aI8891
aI6897
aI9652
aI10766
aI8499
aI5996
aI9533
aI2902
aI9386
aI4320
aI10537
aI4782
aI6628
aI3231
aI10560
aI8553
aI9998
aI4184
aI10211
aI8643
aI3178
aI2231
aI7002
aI3094
aI5344
aI9232
aI6484
aI4885
aI2599
aI451
aI5483
aI9503
aI59
aI1814
aI1243
aI729
aI10167
aI3016
aI1770
aI476
aI7585
aI2665
aI10109
aI10738
aI9660
aI3713
aI11213
aI8120
aI6792
aI391
aI2574
aI2512
aI940
aI5514
aI4248
aI3370
aI8386
aI4414
aI7915
aI4429
aI5572
aI7092
aI5197
aI6808
aI3000
aI8044
aI8724
aI4666
aI6652
aI4149
aI7385
aI3873
aI1670
aI10869
aI7671
aI6631
aI5250
aI1573
aI9623
aI10963
aI6195
aI6701
aI10398
aI9694
aI2141
aI3927
aI7837
aI1565
aI4405
aI2114
aI1094
aI7402
aI7191
aI10350
aI2680
aI1710
aI1302
aI4219
aI9399
aI10988
aI8439
aI6941
aI9800
aI2927
aI4711
aI10322
aI8843
aI6027
aI7679
aI3443
aI726
aI204
aI680
aI4916
aI5456
aI4901
aI4903
aI10412
aI6113
aI118
aI1204
aI1086
aI527
aI5061
aI1988
aI6359
aI1266
aI1169
aI8763
aI141
aI7345
aI5243
aI7646
aI6593
aI3561
aI7879
aI7328
aI3850
aI3668
aI6406
aI5351
aI10131
aI5764
aI8903
aI6409
aI4621
aI3234
aI8137
aI9458
aI9581
aI1713
aI505
aI1940
aI9979
aI6568
aI439
aI3568
aI2317
aI7704
aI9543
aI5084
aI7233
aI1276
aI10343
aI1492
aI2892
aI2749
aI400
aI7250
aI5160
aI2468
aI9809
aI7106
aI4712
aI4580
aI9157
aI4555
aI5233
aI4649
aI4201
aI10622
aI3852
aI4741
aI2055
aI10924
aI1441
aI5498
aI6953
aI10186
aI5297
aI6591
aI9451
aI4075
aI7703
aI8102
aI10645
aI11187
aI6990
aI8508
aI1190
aI6006
aI5965
aI2228
aI5172
aI6399
aI10807
aI6363
aI3989
aI8493
aI10207
aI11093
aI10063
aI8175
aI6678
aI7985
aI463
aI9423
aI5424
aI11032
aI6599
aI10603
aI9941
aI7928
aI9766
aI10687
aI9264
aI6183
aI2147
aI6866
aI3731
aI4752
aI8721
aI10190
aI10012
aI1463
aI639
aI4850
aI10385
aI6071
aI8065
aI9719
aI198
aI5291
aI5144
aI5464
aI6295
aI5116
aI6693
aI7563
aI619
aI9294
aI10041
aI5480
aI5431
aI2644
aI8870
aI5207
aI9275
aI3842
aI10736
aI763
aI8242
aI6859
aI435
aI5788
aI2922
aI1901
aI5120
aI10648
aI1783
aI4307
aI5738
aI7224
aI1750
aI5154
aI10308
aI4314
aI767
aI8
aI7621
aI4754
aI7006
aI3298
aI1996
aI4236
aI8736
aI10578
aI7066
aI4379
aI4840
aI11017
aI4441
aI6374
aI2333
aI1548
aI514
aI3349
aI2567
aI4652
aI6728
aI6551
aI6894
aI6011
aI2199
aI847
aI2573
aI356
aI53
aI9891
aI2102
aI8594
aI1477
aI8679
aI2984
aI4726
aI876
aI7821
aI9481
aI8436
aI10132
aI153
aI5885
aI3121
aI6089
aI10265
aI1184
aI360
aI866
aI6465
aI5304
aI8092
aI3504
aI4317
aI5392
aI3593
aI5891
aI9549
aI6198
aI8039
aI8958
aI7706
aI4878
aI2694
aI3397
aI5902
aI5301
aI5044
aI1762
aI9288
aI6579
aI11294
aI556
aI681
aI3227
aI361
aI11169
aI2403
aI5003
aI7394
aI333
aI8446
aI11237
aI2107
aI838
aI9640
aI10998
aI5634
aI9847
aI9554
aI3855
aI3293
aI1559
aI4367
aI11406
aI10906
aI6957
aI10814
aI6680
aI11211
aI6243
aI1833
aI9536
aI9920
aI4121
aI2189
aI5429
aI6960
aI10370
aI6194
aI5935
aI8391
aI10447
aI3875
aI8618
aI10778
aI7628
aI3929
aI278
aI10467
aI6075
aI233
aI1662
aI1533
aI4472
aI8524
aI9495
aI6152
aI9453
aI6786
aI3523
aI7023
aI432
aI1739
aI7300
aI1993
aa.