(lp0
(lp1
I27
aI6
aI36
aI50
aI49
aa(lp2
I34
aI8
aI30
aI45
aI15
aa(lp3
I44
aI42
aI19
aI5
aI24
aa(lp4
I9
aI46
aI10
aI33
aI32
aa(lp5
I39
aI38
aI13
aI25
aI2
aa(lp6
I23
aI51
aI47
aI18
aI12
aa(lp7
I37
aI1
aI26
aI0
aI22
aa(lp8
I28
aI3
aI40
aI48
aI7
aa(lp9
I21
aI20
aI11
aI14
aI17
aa(lp10
I35
aI43
aI41
aI31
aI4
aI16
aI29
aa.