(lp0
(lp1
I1
aI20
aI11
aa(lp2
I22
aI17
aI12
aa(lp3
I2
aI16
aI23
aa(lp4
I31
aI29
aI32
aa(lp5
I26
aI3
aI0
aa(lp6
I4
aI25
aI28
aa(lp7
I13
aI30
aI10
aa(lp8
I27
aI5
aI18
aa(lp9
I14
aI24
aI6
aa(lp10
I19
aI9
aI7
aI8
aI21
aI15
aa.