(lp0
(lp1
I86
aI500
aI695
aI881
aI774
aI289
aI611
aI609
aI746
aI568
aI5
aI554
aI744
aI260
aI888
aI882
aI874
aI964
aI330
aI770
aI237
aI427
aI430
aI326
aI998
aI697
aI1003
aI72
aI638
aI657
aI910
aI691
aI741
aI1007
aI321
aI314
aI748
aI604
aI612
aI27
aI977
aI708
aI878
aI425
aI34
aI371
aI852
aI250
aI761
aI506
aI436
aI714
aI1011
aI727
aI806
aI67
aI218
aI439
aI113
aI660
aI618
aI499
aI897
aI832
aI547
aI483
aI722
aI266
aI777
aI50
aI843
aI294
aI312
aI446
aI636
aI343
aI974
aI2
aI255
aI916
aI845
aI841
aI490
aI602
aI925
aI585
aI875
aI966
aI726
aI836
aI525
aI688
aI318
aI913
aI864
aI815
aI865
aI850
aI198
aI710
aI214
aI538
aa(lp2
I349
aI509
aI522
aI539
aI929
aI149
aI844
aI994
aI254
aI410
aI210
aI542
aI139
aI894
aI633
aI734
aI833
aI752
aI780
aI177
aI370
aI135
aI709
aI469
aI458
aI512
aI166
aI587
aI23
aI246
aI967
aI24
aI576
aI715
aI478
aI932
aI243
aI124
aI405
aI524
aI997
aI132
aI145
aI797
aI30
aI1016
aI788
aI800
aI207
aI887
aI1006
aI308
aI269
aI398
aI976
aI807
aI461
aI331
aI120
aI776
aI206
aI438
aI606
aI828
aI79
aI186
aI588
aI981
aI185
aI546
aI705
aI46
aI455
aI702
aI450
aI730
aI862
aI569
aI973
aI452
aI385
aI153
aI647
aI4
aI378
aI26
aI84
aI598
aI173
aI363
aI518
aI544
aI333
aI209
aI857
aI193
aI224
aI73
aI172
aI144
aI679
aI151
aa(lp3
I270
aI320
aI498
aI526
aI400
aI908
aI563
aI347
aI1009
aI608
aI279
aI792
aI192
aI299
aI625
aI359
aI591
aI533
aI661
aI975
aI958
aI56
aI624
aI25
aI732
aI698
aI195
aI637
aI653
aI223
aI474
aI515
aI332
aI47
aI654
aI322
aI599
aI92
aI867
aI169
aI740
aI159
aI720
aI742
aI315
aI390
aI787
aI600
aI258
aI356
aI227
aI381
aI893
aI796
aI205
aI767
aI373
aI91
aI338
aI29
aI388
aI324
aI1017
aI109
aI510
aI8
aI550
aI211
aI14
aI603
aI60
aI773
aI799
aI690
aI346
aI729
aI107
aI6
aI284
aI793
aI560
aI503
aI721
aI208
aI454
aI451
aI675
aI784
aI174
aI448
aI809
aI626
aI823
aI422
aI885
aI467
aI856
aI275
aI676
aI263
aI87
aI822
aa(lp4
I402
aI521
aI630
aI847
aI700
aI355
aI901
aI942
aI360
aI1012
aI944
aI408
aI667
aI963
aI440
aI282
aI851
aI15
aI42
aI940
aI790
aI411
aI180
aI247
aI665
aI138
aI39
aI898
aI1015
aI816
aI923
aI577
aI655
aI401
aI530
aI613
aI859
aI980
aI532
aI342
aI685
aI725
aI459
aI817
aI713
aI11
aI824
aI927
aI883
aI482
aI115
aI666
aI992
aI555
aI316
aI464
aI677
aI607
aI791
aI213
aI392
aI961
aI652
aI424
aI870
aI462
aI907
aI987
aI492
aI719
aI995
aI487
aI674
aI678
aI22
aI671
aI571
aI99
aI49
aI627
aI103
aI869
aI415
aI643
aI584
aI375
aI711
aI664
aI738
aI202
aI728
aI488
aI48
aI745
aI1022
aI873
aI242
aI64
aI565
aI155
aI276
aI466
aa(lp5
I110
aI593
aI872
aI861
aI610
aI350
aI89
aI494
aI90
aI393
aI271
aI579
aI384
aI601
aI804
aI179
aI66
aI736
aI696
aI922
aI38
aI581
aI582
aI505
aI277
aI558
aI479
aI876
aI731
aI404
aI470
aI763
aI83
aI102
aI148
aI572
aI758
aI517
aI768
aI501
aI507
aI199
aI759
aI337
aI1000
aI261
aI699
aI969
aI437
aI429
aI372
aI629
aI176
aI946
aI345
aI583
aI351
aI848
aI200
aI150
aI723
aI769
aI649
aI449
aI597
aI118
aI235
aI9
aI673
aI251
aI257
aI300
aI531
aI336
aI570
aI775
aI930
aI108
aI557
aI146
aI125
aI693
aI754
aI20
aI906
aI391
aI1019
aI945
aI497
aI339
aI203
aI465
aI45
aI364
aI855
aI684
aI75
aI36
aI416
aI472
aI996
aI605
aa(lp6
I1008
aI854
aI111
aI134
aI477
aI960
aI514
aI334
aI519
aI915
aI766
aI556
aI234
aI802
aI646
aI413
aI858
aI473
aI900
aI369
aI264
aI749
aI561
aI328
aI617
aI163
aI434
aI839
aI175
aI545
aI948
aI928
aI895
aI694
aI225
aI396
aI614
aI648
aI158
aI747
aI475
aI340
aI543
aI863
aI288
aI348
aI273
aI389
aI201
aI919
aI352
aI117
aI212
aI718
aI13
aI481
aI196
aI170
aI1010
aI37
aI632
aI689
aI412
aI95
aI979
aI1001
aI938
aI779
aI622
aI310
aI890
aI394
aI540
aI317
aI786
aI798
aI379
aI325
aI672
aI743
aI663
aI335
aI119
aI615
aI952
aI323
aI441
aI231
aI760
aI595
aI846
aI834
aI40
aI81
aI154
aI717
aI93
aI17
aI703
aI353
aI97
aI656
aa(lp7
I133
aI983
aI278
aI1
aI456
aI76
aI933
aI280
aI304
aI943
aI268
aI10
aI616
aI962
aI327
aI701
aI903
aI162
aI513
aI161
aI619
aI820
aI399
aI232
aI147
aI866
aI187
aI840
aI620
aI114
aI183
aI443
aI911
aI249
aI403
aI233
aI495
aI386
aI480
aI496
aI631
aI762
aI821
aI292
aI968
aI909
aI574
aI68
aI970
aI642
aI831
aI248
aI62
aI871
aI789
aI365
aI1014
aI628
aI406
aI309
aI1004
aI988
aI361
aI382
aI290
aI1020
aI274
aI311
aI891
aI476
aI432
aI825
aI256
aI827
aI291
aI803
aI918
aI670
aI226
aI71
aI751
aI377
aI182
aI181
aI319
aI645
aI244
aI131
aI573
aI171
aI489
aI562
aI302
aI28
aI262
aI982
aI122
aI19
aI127
aI98
aI782
aI658
aa(lp8
I230
aI123
aI272
aI101
aI716
aI471
aI805
aI216
aI687
aI814
aI383
aI575
aI651
aI136
aI771
aI527
aI366
aI552
aI516
aI41
aI7
aI520
aI737
aI426
aI936
aI217
aI707
aI838
aI634
aI553
aI397
aI819
aI303
aI902
aI650
aI259
aI358
aI129
aI219
aI765
aI18
aI1021
aI286
aI956
aI395
aI886
aI947
aI74
aI484
aI578
aI860
aI724
aI63
aI44
aI639
aI142
aI1002
aI167
aI52
aI884
aI735
aI152
aI508
aI194
aI813
aI934
aI130
aI764
aI329
aI954
aI128
aI160
aI528
aI444
aI78
aI686
aI924
aI889
aI88
aI783
aI640
aI59
aI239
aI221
aI536
aI357
aI80
aI367
aI706
aI94
aI265
aI485
aI772
aI559
aI951
aI197
aI794
aI491
aI785
aI912
aI12
aI374
aa(lp9
I818
aI644
aI433
aI939
aI941
aI935
aI58
aI313
aI306
aI965
aI189
aI457
aI986
aI407
aI541
aI297
aI143
aI184
aI31
aI70
aI920
aI549
aI837
aI680
aI3
aI829
aI121
aI586
aI137
aI241
aI984
aI296
aI141
aI287
aI955
aI750
aI755
aI669
aI368
aI100
aI69
aI921
aI931
aI899
aI681
aI580
aI245
aI468
aI57
aI953
aI222
aI85
aI236
aI812
aI453
aI757
aI420
aI842
aI421
aI16
aI126
aI950
aI414
aI957
aI281
aI692
aI493
aI990
aI215
aI140
aI989
aI105
aI529
aI445
aI781
aI537
aI82
aI344
aI442
aI341
aI978
aI879
aI463
aI592
aI659
aI811
aI307
aI849
aI778
aI589
aI354
aI51
aI548
aI168
aI896
aI868
aI1013
aI835
aI32
aI590
aI431
aI733
aa(lp10
I0
aI21
aI33
aI35
aI43
aI53
aI54
aI55
aI61
aI65
aI77
aI96
aI104
aI106
aI112
aI116
aI156
aI157
aI164
aI165
aI178
aI188
aI190
aI191
aI204
aI220
aI228
aI229
aI238
aI240
aI252
aI253
aI267
aI283
aI285
aI293
aI295
aI298
aI301
aI305
aI362
aI376
aI380
aI387
aI409
aI417
aI418
aI419
aI423
aI428
aI435
aI447
aI460
aI486
aI502
aI504
aI511
aI523
aI534
aI535
aI551
aI564
aI566
aI567
aI594
aI596
aI621
aI623
aI635
aI641
aI662
aI668
aI682
aI683
aI704
aI712
aI739
aI753
aI756
aI795
aI801
aI808
aI810
aI826
aI830
aI853
aI877
aI880
aI892
aI904
aI905
aI914
aI917
aI926
aI937
aI949
aI959
aI971
aI972
aI985
aI991
aI993
aI999
aI1005
aI1018
aa.