(lp0
(lp1
I478
aI1484
aI216
aI1097
aI56
aI780
aI315
aI377
aI1076
aI322
aI838
aI275
aI895
aI438
aI379
aI541
aI1409
aI206
aI400
aI834
aI1199
aI642
aI241
aI78
aI60
aI105
aI1493
aI1273
aI297
aI1131
aI576
aI792
aI656
aI1387
aI1488
aI1498
aI270
aI929
aI1420
aI223
aI130
aI1398
aI616
aI1364
aI1485
aI872
aI1513
aI357
aI115
aI1034
aI716
aI132
aI355
aI922
aI1189
aI619
aI1091
aI957
aI1313
aI1377
aI829
aI900
aI585
aI1025
aI318
aI1237
aI345
aI798
aI1278
aI910
aI1423
aI185
aI256
aI1214
aI1238
aI1152
aI1063
aI486
aI348
aI1519
aI1107
aI1303
aI238
aI534
aI456
aI945
aI1419
aI962
aI973
aI1394
aI678
aI601
aI1340
aI977
aI899
aI850
aI994
aI1500
aI474
aI1179
aI339
aI480
aI197
aI1068
aI386
aI623
aI547
aI429
aI1165
aI778
aI1215
aI500
aI1219
aI488
aI479
aI156
aI1225
aI1327
aI949
aI331
aI570
aI454
aI352
aI395
aI752
aI74
aI1299
aI476
aI1291
aI871
aI199
aI577
aI271
aI594
aI423
aI435
aI129
aI161
aI652
aI194
aI124
aI77
aI1137
aI1494
aI1289
aI19
aI919
aI876
aI193
aI807
aI912
aI289
aI781
aI189
aI394
aa(lp2
I1122
aI1080
aI730
aI1262
aI1362
aI1372
aI934
aI372
aI1532
aI588
aI1534
aI1310
aI972
aI904
aI310
aI1453
aI729
aI1395
aI650
aI1071
aI4
aI1192
aI1536
aI526
aI805
aI743
aI923
aI225
aI1042
aI1414
aI1044
aI1533
aI475
aI1159
aI816
aI897
aI993
aI133
aI1408
aI371
aI24
aI136
aI1277
aI221
aI1035
aI867
aI111
aI1108
aI184
aI1085
aI549
aI750
aI704
aI408
aI552
aI811
aI1481
aI734
aI801
aI259
aI1361
aI30
aI542
aI987
aI1037
aI978
aI1054
aI1445
aI561
aI902
aI1077
aI442
aI679
aI50
aI565
aI462
aI153
aI618
aI436
aI335
aI25
aI673
aI1160
aI1201
aI231
aI272
aI765
aI1120
aI1489
aI860
aI657
aI554
aI67
aI564
aI824
aI758
aI754
aI874
aI1260
aI886
aI224
aI245
aI460
aI573
aI33
aI1155
aI567
aI719
aI1268
aI1357
aI1094
aI662
aI1285
aI308
aI736
aI821
aI63
aI939
aI97
aI103
aI1374
aI1312
aI384
aI925
aI157
aI713
aI1354
aI664
aI239
aI883
aI1526
aI1129
aI917
aI1171
aI651
aI1065
aI119
aI731
aI340
aI1455
aI1006
aI1527
aI1516
aI471
aI344
aI62
aI626
aI1279
aI431
aI1259
aI1003
aI749
aI714
aI641
aI288
aa(lp3
I1157
aI385
aI170
aI961
aI908
aI878
aI599
aI858
aI265
aI868
aI155
aI387
aI83
aI1290
aI1078
aI537
aI375
aI1282
aI79
aI857
aI503
aI847
aI32
aI211
aI168
aI333
aI1465
aI1393
aI947
aI186
aI633
aI1246
aI580
aI649
aI530
aI88
aI1134
aI1175
aI1376
aI901
aI96
aI458
aI350
aI98
aI295
aI451
aI839
aI1183
aI1013
aI285
aI1154
aI507
aI548
aI1017
aI1072
aI391
aI1334
aI127
aI337
aI31
aI13
aI100
aI1518
aI1422
aI1153
aI412
aI1525
aI1235
aI415
aI942
aI307
aI1470
aI913
aI332
aI892
aI881
aI766
aI1226
aI1186
aI691
aI282
aI605
aI146
aI302
aI1471
aI770
aI6
aI84
aI248
aI1243
aI1208
aI1318
aI746
aI54
aI840
aI1059
aI66
aI82
aI1507
aI684
aI281
aI971
aI505
aI444
aI1430
aI1092
aI1356
aI1064
aI52
aI301
aI760
aI1284
aI135
aI1417
aI87
aI484
aI183
aI509
aI1503
aI336
aI1039
aI18
aI558
aI280
aI1449
aI1113
aI836
aI1114
aI137
aI139
aI1390
aI960
aI1521
aI544
aI93
aI1352
aI498
aI646
aI563
aI999
aI779
aI1257
aI841
aI524
aI1228
aI1255
aI351
aI1111
aI1512
aI107
aI629
aI1271
aI291
aI1181
aI362
aa(lp4
I643
aI299
aI835
aI361
aI1543
aI814
aI430
aI188
aI169
aI1009
aI887
aI668
aI1293
aI108
aI1353
aI830
aI635
aI28
aI434
aI179
aI41
aI263
aI469
aI1547
aI268
aI36
aI1346
aI1431
aI389
aI888
aI1328
aI1355
aI1333
aI110
aI553
aI304
aI1288
aI1055
aI1265
aI926
aI700
aI370
aI653
aI525
aI1075
aI1469
aI1460
aI95
aI1079
aI980
aI234
aI709
aI732
aI1335
aI274
aI392
aI1133
aI45
aI715
aI1105
aI222
aI1359
aI1319
aI661
aI1020
aI1520
aI636
aI453
aI393
aI1337
aI759
aI1124
aI1103
aI120
aI1305
aI697
aI1292
aI670
aI292
aI1084
aI1386
aI376
aI742
aI1007
aI1468
aI1117
aI1380
aI1169
aI944
aI1032
aI71
aI7
aI1404
aI413
aI1411
aI1384
aI171
aI953
aI772
aI1005
aI603
aI1275
aI711
aI511
aI733
aI53
aI976
aI499
aI889
aI293
aI820
aI1367
aI341
aI1378
aI1095
aI1326
aI492
aI793
aI510
aI91
aI866
aI1196
aI705
aI869
aI1195
aI1014
aI204
aI26
aI1418
aI403
aI201
aI1266
aI907
aI1406
aI363
aI1028
aI1523
aI328
aI464
aI815
aI506
aI1156
aI1478
aI753
aI417
aI90
aI279
aI457
aI1115
aI300
aI1089
aI1051
aI689
aI1021
aI916
aa(lp5
I1038
aI681
aI898
aI455
aI584
aI1483
aI791
aI1016
aI787
aI262
aI230
aI51
aI1330
aI2
aI1221
aI354
aI514
aI80
aI959
aI424
aI985
aI181
aI141
aI675
aI426
aI446
aI508
aI617
aI958
aI1491
aI1435
aI1480
aI877
aI122
aI366
aI5
aI974
aI739
aI774
aI855
aI317
aI258
aI1223
aI722
aI326
aI75
aI795
aI405
aI851
aI1213
aI1128
aI1307
aI890
aI15
aI1177
aI1180
aI677
aI1099
aI1024
aI862
aI708
aI782
aI277
aI166
aI1033
aI472
aI76
aI240
aI1345
aI388
aI407
aI1321
aI367
aI864
aI849
aI1304
aI724
aI151
aI856
aI593
aI324
aI1382
aI1541
aI140
aI102
aI316
aI1174
aI1224
aI982
aI467
aI401
aI666
aI853
aI493
aI1061
aI470
aI420
aI921
aI1456
aI1286
aI1249
aI14
aI85
aI518
aI369
aI209
aI207
aI721
aI365
aI1428
aI150
aI1204
aI273
aI592
aI1496
aI1142
aI931
aI512
aI158
aI1391
aI1363
aI763
aI655
aI612
aI1216
aI311
aI219
aI1331
aI1087
aI1452
aI848
aI165
aI598
aI1438
aI402
aI48
aI1368
aI521
aI252
aI1360
aI1136
aI672
aI1176
aI1168
aI180
aI1442
aI46
aI404
aI1230
aI1239
aI427
aI1040
aI1373
aI1467
aI975
aa(lp6
I1407
aI1008
aI988
aI720
aI198
aI692
aI797
aI1342
aI175
aI627
aI1499
aI1451
aI1379
aI880
aI178
aI852
aI761
aI952
aI768
aI1316
aI1401
aI735
aI1104
aI1151
aI1164
aI1514
aI131
aI1231
aI1350
aI86
aI260
aI1447
aI374
aI572
aI1509
aI1074
aI381
aI873
aI205
aI1178
aI965
aI128
aI35
aI693
aI1083
aI1212
aI58
aI832
aI167
aI644
aI669
aI397
aI196
aI756
aI57
aI611
aI1043
aI212
aI425
aI104
aI625
aI312
aI532
aI1462
aI42
aI1251
aI1141
aI21
aI667
aI515
aI1163
aI712
aI177
aI99
aI806
aI1338
aI1234
aI527
aI202
aI796
aI861
aI1138
aI410
aI1144
aI38
aI968
aI648
aI997
aI123
aI1479
aI979
aI804
aI943
aI937
aI229
aI437
aI1297
aI837
aI1109
aI1322
aI575
aI390
aI242
aI243
aI174
aI1082
aI313
aI905
aI1311
aI1492
aI255
aI703
aI914
aI932
aI788
aI1205
aI604
aI1458
aI1046
aI927
aI237
aI164
aI68
aI1010
aI152
aI1158
aI433
aI591
aI182
aI266
aI706
aI125
aI502
aI659
aI748
aI247
aI358
aI481
aI1474
aI817
aI1019
aI896
aI843
aI827
aI1274
aI523
aI764
aI767
aI1439
aI1426
aI1207
aI428
aI608
aI1324
aI1060
aa(lp7
I865
aI682
aI261
aI1546
aI450
aI903
aI717
aI828
aI1086
aI1188
aI1482
aI1308
aI533
aI346
aI551
aI1517
aI176
aI674
aI34
aI613
aI1100
aI519
aI1236
aI546
aI622
aI1272
aI495
aI1047
aI1457
aI232
aI597
aI884
aI342
aI1505
aI1538
aI1002
aI1162
aI757
aI1211
aI1143
aI319
aI149
aI40
aI504
aI744
aI1511
aI418
aI854
aI1314
aI360
aI1242
aI210
aI875
aI1473
aI246
aI383
aI906
aI536
aI0
aI1148
aI566
aI1540
aI833
aI445
aI948
aI989
aI1203
aI368
aI1184
aI723
aI885
aI1227
aI688
aI1400
aI72
aI416
aI294
aI822
aI1222
aI986
aI1106
aI924
aI142
aI1218
aI290
aI992
aI1544
aI1069
aI483
aI1053
aI882
aI195
aI1206
aI1296
aI632
aI831
aI1281
aI540
aI1504
aI1252
aI101
aI267
aI325
aI1415
aI173
aI411
aI1102
aI528
aI1535
aI725
aI172
aI465
aI92
aI529
aI794
aI1026
aI665
aI286
aI568
aI276
aI517
aI1450
aI1397
aI800
aI1341
aI1495
aI414
aI208
aI1502
aI1170
aI1424
aI148
aI1200
aI620
aI1425
aI647
aI1001
aI1528
aI574
aI1018
aI1388
aI320
aI803
aI1070
aI398
aI1145
aI1241
aI802
aI1245
aI73
aI935
aI1301
aI485
aI1295
aI918
aa(lp8
I283
aI1294
aI640
aI422
aI1118
aI159
aI1405
aI200
aI1530
aI1444
aI143
aI698
aI59
aI406
aI1508
aI447
aI1029
aI44
aI1209
aI812
aI1146
aI94
aI1375
aI1011
aI571
aI775
aI1045
aI330
aI578
aI1339
aI1440
aI9
aI233
aI1140
aI1049
aI799
aI43
aI160
aI1036
aI1229
aI1545
aI226
aI347
aI737
aI1015
aI1167
aI516
aI676
aI1191
aI359
aI1443
aI842
aI747
aI349
aI228
aI296
aI1090
aI1185
aI1283
aI1366
aI440
aI1487
aI1130
aI645
aI138
aI1412
aI535
aI1210
aI1126
aI1348
aI491
aI1446
aI461
aI1320
aI701
aI1459
aI1389
aI419
aI560
aI1399
aI1
aI1369
aI981
aI893
aI203
aI969
aI790
aI683
aI1048
aI482
aI1041
aI894
aI409
aI1023
aI727
aI396
aI477
aI520
aI1448
aI938
aI581
aI490
aI663
aI967
aI27
aI364
aI321
aI145
aI1336
aI126
aI531
aI11
aI610
aI496
aI538
aI443
aI192
aI1193
aI638
aI187
aI235
aI1073
aI776
aI1121
aI710
aI1173
aI121
aI559
aI501
aI1240
aI1276
aI81
aI220
aI1254
aI569
aI227
aI946
aI1325
aI1476
aI116
aI1132
aI1166
aI718
aI1261
aI1347
aI596
aI218
aI399
aI996
aI671
aI1066
aI253
aI214
aI964
aI487
aa(lp9
I1306
aI1403
aI1030
aI1269
aI1096
aI826
aI634
aI287
aI1437
aI64
aI1248
aI10
aI1058
aI1302
aI614
aI421
aI1287
aI306
aI16
aI1267
aI373
aI468
aI513
aI1116
aI1101
aI990
aI557
aI250
aI1315
aI963
aI818
aI615
aI915
aI1477
aI783
aI1098
aI113
aI353
aI995
aI1548
aI106
aI55
aI1421
aI1486
aI1381
aI1529
aI1396
aI1501
aI998
aI23
aI928
aI1000
aI970
aI49
aI1244
aI1012
aI489
aI1110
aI936
aI314
aI690
aI1434
aI786
aI217
aI1365
aI162
aI284
aI751
aI1161
aI1427
aI20
aI17
aI1497
aI696
aI213
aI1416
aI810
aI1056
aI738
aI264
aI589
aI257
aI1413
aI556
aI1490
aI621
aI356
aI1270
aI550
aI685
aI1057
aI699
aI1280
aI1392
aI278
aI1298
aI1542
aI1062
aI29
aI1464
aI769
aI1522
aI12
aI755
aI808
aI448
aI1194
aI323
aI1463
aI587
aI522
aI1149
aI134
aI1537
aI879
aI630
aI1172
aI891
aI118
aI1127
aI61
aI1125
aI432
aI1472
aI1081
aI1233
aI624
aI602
aI1139
aI251
aI606
aI607
aI1220
aI327
aI449
aI687
aI1052
aI1344
aI1123
aI1370
aI1263
aI785
aI1088
aI680
aI609
aI728
aI147
aI249
aI1539
aI1432
aI543
aI1510
aI595
aI65
aI1190
aa(lp10
I3
aI8
aI22
aI37
aI39
aI47
aI69
aI70
aI89
aI109
aI112
aI114
aI117
aI144
aI154
aI163
aI190
aI191
aI215
aI236
aI244
aI254
aI269
aI298
aI303
aI305
aI309
aI329
aI334
aI338
aI343
aI378
aI380
aI382
aI439
aI441
aI452
aI459
aI463
aI466
aI473
aI494
aI497
aI539
aI545
aI555
aI562
aI579
aI582
aI583
aI586
aI590
aI600
aI628
aI631
aI637
aI639
aI654
aI658
aI660
aI686
aI694
aI695
aI702
aI707
aI726
aI740
aI741
aI745
aI762
aI771
aI773
aI777
aI784
aI789
aI809
aI813
aI819
aI823
aI825
aI844
aI845
aI846
aI859
aI863
aI870
aI909
aI911
aI920
aI930
aI933
aI940
aI941
aI950
aI951
aI954
aI955
aI956
aI966
aI983
aI984
aI991
aI1004
aI1022
aI1027
aI1031
aI1050
aI1067
aI1093
aI1112
aI1119
aI1135
aI1147
aI1150
aI1182
aI1187
aI1197
aI1198
aI1202
aI1217
aI1232
aI1247
aI1250
aI1253
aI1256
aI1258
aI1264
aI1300
aI1309
aI1317
aI1323
aI1329
aI1332
aI1343
aI1349
aI1351
aI1358
aI1371
aI1383
aI1385
aI1402
aI1410
aI1429
aI1433
aI1436
aI1441
aI1454
aI1461
aI1466
aI1475
aI1506
aI1515
aI1524
aI1531
aI1549
aa.