(lp0
(lp1
I985
aI1603
aI496
aI1260
aI3473
aI244
aI2596
aI3108
aI2504
aI2555
aI2841
aI610
aI1215
aI1724
aI2746
aI914
aI2097
aI2584
aI1515
aI682
aI2753
aI1350
aI1113
aI3137
aI1807
aI3524
aI1229
aI3080
aI2648
aI3375
aI2449
aI354
aI551
aI1551
aI1477
aI2296
aI96
aI1605
aI2899
aI2797
aI3519
aI1861
aI2235
aI2524
aI1410
aI2448
aI3467
aI1671
aI2087
aI2847
aI1168
aI3128
aI3345
aI1270
aI817
aI1123
aI787
aI517
aI2698
aI2974
aI319
aI2427
aI2823
aI336
aI1198
aI1638
aI3239
aI3193
aI1858
aI307
aI329
aI482
aI66
aI1750
aI885
aI802
aI2873
aI2243
aI702
aI2259
aI2768
aI2551
aI3514
aI3269
aI2361
aI745
aI2251
aI91
aI97
aI824
aI2736
aI624
aI2928
aI2195
aI572
aI843
aI3084
aI1207
aI2976
aI2356
aI375
aI1067
aI3348
aI3435
aI470
aI1834
aI2069
aI2320
aI1085
aI1798
aI2373
aI1827
aI1694
aI2706
aI1554
aI1427
aI1090
aI2157
aI2236
aI2901
aI1019
aI2592
aI381
aI692
aI1525
aI144
aI1164
aI858
aI3355
aI755
aI3305
aI1296
aI151
aI2428
aI1092
aI1385
aI2277
aI2035
aI2637
aI3329
aI2106
aI3192
aI2499
aI3019
aI1562
aI1518
aI1232
aI2622
aI2684
aI747
aI2478
aI450
aI2214
aI2252
aI2098
aI2894
aI1954
aI2261
aI2364
aI3347
aI3040
aI3295
aI1265
aI640
aI931
aI2719
aI230
aI1190
aI2725
aI591
aI158
aI3207
aI3328
aI720
aI597
aI3091
aI3115
aI285
aI2595
aI1268
aI693
aI1352
aI2733
aI778
aI1899
aI190
aI1351
aI673
aI2229
aI2678
aI608
aI1271
aI2878
aI2253
aI1022
aI728
aI2945
aI1575
aI1879
aI2330
aI1930
aI634
aI171
aI1158
aI3005
aI403
aI2458
aI2353
aI2362
aI527
aI625
aI1228
aI2739
aI1975
aI2412
aI1735
aI1330
aI2588
aI790
aI3061
aI999
aI2008
aI2289
aI909
aI2758
aI834
aI986
aI1340
aI1614
aI3132
aI655
aI1036
aI1354
aI44
aI3455
aI3175
aI2298
aI2729
aI612
aI1688
aI1469
aI1751
aI2319
aI2860
aI3485
aI2948
aI3076
aI3000
aI1346
aI2019
aI3130
aI2115
aI106
aI898
aI2869
aI1068
aI1656
aI1264
aI1600
aI2308
aI548
aI1003
aI3179
aI2755
aI836
aI93
aI3177
aI3481
aI1961
aI292
aI1633
aI2140
aI698
aI3249
aI1114
aI221
aI1708
aI235
aI1812
aI2012
aI1074
aI484
aI2994
aI523
aI590
aI2359
aI366
aI58
aI1118
aI694
aI1990
aI1493
aI585
aI3229
aI1389
aI1810
aI1991
aI2465
aI2406
aI2302
aI478
aI2615
aI908
aI1917
aI2482
aI3181
aI2491
aI3247
aI1381
aI2529
aI3168
aI211
aI3240
aI2480
aI2450
aI3484
aI667
aI467
aI17
aI3144
aI3261
aI531
aI3468
aI2429
aI2827
aI490
aI163
aI2969
aI2322
aI2660
aI1731
aI3461
aI2697
aI1832
aI398
aI3048
aI225
aI3107
aI2593
aI1566
aI316
aI177
aI3018
aI2469
aI1506
aI831
aI3245
aI130
aI959
aI3382
aI2870
aI2271
aa(lp2
I2891
aI2723
aI611
aI287
aI529
aI904
aI2912
aI2580
aI3450
aI2849
aI1845
aI2336
aI331
aI961
aI3112
aI944
aI3424
aI3407
aI2791
aI865
aI658
aI1923
aI1707
aI2652
aI3498
aI2949
aI3125
aI1200
aI1626
aI2349
aI705
aI711
aI539
aI1251
aI2464
aI941
aI1195
aI637
aI1380
aI1820
aI2951
aI1710
aI2487
aI602
aI1563
aI3104
aI616
aI1674
aI3
aI1234
aI2535
aI1726
aI2513
aI1360
aI804
aI2357
aI2552
aI2151
aI304
aI1292
aI2585
aI1507
aI1547
aI3448
aI877
aI3517
aI1169
aI606
aI2286
aI1212
aI595
aI3338
aI317
aI1252
aI63
aI856
aI2587
aI1640
aI794
aI2193
aI1472
aI1160
aI111
aI181
aI2164
aI12
aI2265
aI2454
aI186
aI1999
aI3306
aI2451
aI1579
aI2118
aI957
aI767
aI700
aI2071
aI2577
aI2354
aI2608
aI945
aI276
aI598
aI849
aI622
aI3248
aI3121
aI811
aI1313
aI298
aI148
aI1130
aI1618
aI709
aI1662
aI2421
aI1855
aI3409
aI1776
aI1953
aI210
aI902
aI402
aI1894
aI2540
aI2921
aI2647
aI1011
aI2194
aI1151
aI1024
aI561
aI3016
aI934
aI850
aI1217
aI1305
aI1396
aI60
aI1394
aI1387
aI1796
aI1788
aI1916
aI2492
aI1995
aI1727
aI2028
aI2025
aI2263
aI3222
aI3099
aI638
aI1134
aI2722
aI763
aI805
aI48
aI379
aI514
aI2230
aI2515
aI2477
aI347
aI1331
aI1840
aI410
aI1461
aI3330
aI499
aI2068
aI468
aI3280
aI1650
aI47
aI3400
aI2946
aI2172
aI388
aI2424
aI1462
aI3153
aI518
aI1299
aI371
aI3083
aI1713
aI3388
aI1866
aI2516
aI2422
aI978
aI765
aI36
aI2340
aI2285
aI2554
aI717
aI1256
aI819
aI2121
aI357
aI485
aI2685
aI2180
aI483
aI1848
aI2922
aI1430
aI1341
aI2437
aI840
aI2762
aI2
aI2174
aI2371
aI215
aI2562
aI3210
aI2852
aI2742
aI1885
aI1846
aI2937
aI862
aI2439
aI52
aI1648
aI1439
aI2533
aI1490
aI920
aI1889
aI1371
aI455
aI1087
aI274
aI3072
aI1535
aI609
aI3211
aI1255
aI1677
aI3259
aI1978
aI3431
aI178
aI3500
aI2244
aI2631
aI1705
aI627
aI2665
aI3063
aI3365
aI1847
aI2141
aI3255
aI2374
aI3470
aI688
aI575
aI746
aI860
aI321
aI2569
aI3493
aI2485
aI445
aI3414
aI708
aI940
aI1412
aI123
aI3267
aI1044
aI581
aI2335
aI960
aI1476
aI1095
aI82
aI1719
aI2565
aI2475
aI2418
aI857
aI1397
aI1835
aI535
aI3163
aI3465
aI2553
aI895
aI2283
aI3252
aI1725
aI2788
aI3268
aI1561
aI2545
aI1590
aI3100
aI3273
aI3020
aI220
aI1099
aI1783
aI2508
aI1357
aI333
aI2082
aI2609
aI2199
aI189
aI2348
aI1433
aI2765
aI3227
aI2598
aI641
aI2237
aI1700
aI27
aI1175
aI2998
aI1240
aI192
aI2517
aI3317
aI558
aI2400
aI3311
aI390
aI1101
aI574
aI392
aI56
aI2488
aI1317
aI1274
aI3217
aI3496
aI1343
aI1763
aI1197
aI1218
aI678
aI2638
aI1253
aI2918
aa(lp3
I2844
aI2158
aI75
aI1413
aI1244
aI2879
aI513
aI1817
aI866
aI135
aI1083
aI2107
aI40
aI2502
aI1974
aI2379
aI1919
aI938
aI1672
aI1475
aI2113
aI2065
aI3051
aI628
aI35
aI1784
aI1383
aI2644
aI2314
aI3383
aI1304
aI1580
aI1888
aI2436
aI3381
aI2868
aI2110
aI389
aI1435
aI195
aI1628
aI3253
aI713
aI2913
aI592
aI2987
aI1873
aI984
aI1717
aI798
aI847
aI408
aI3180
aI3114
aI2190
aI3095
aI346
aI2402
aI269
aI3161
aI955
aI822
aI3406
aI2050
aI2290
aI133
aI2724
aI3197
aI3231
aI2127
aI415
aI3260
aI605
aI369
aI724
aI2786
aI732
aI2757
aI2222
aI495
aI3456
aI2055
aI2701
aI1176
aI3301
aI1760
aI3445
aI1907
aI1288
aI1000
aI668
aI2264
aI1171
aI3097
aI2444
aI2156
aI1362
aI378
aI1196
aI1815
aI2377
aI2999
aI2122
aI491
aI193
aI1201
aI797
aI1239
aI2927
aI1768
aI1063
aI2189
aI1960
aI3368
aI2514
aI486
aI2603
aI757
aI2431
aI1499
aI3129
aI2387
aI3154
aI1436
aI3164
aI3361
aI3462
aI2225
aI2447
aI989
aI3495
aI2324
aI534
aI1594
aI3060
aI2537
aI2153
aI2331
aI1639
aI1339
aI271
aI1599
aI456
aI2163
aI2203
aI2372
aI264
aI1132
aI3127
aI714
aI2408
aI696
aI446
aI2819
aI2854
aI1690
aI310
aI1202
aI2526
aI2471
aI1220
aI1388
aI358
aI2594
aI488
aI2992
aI3006
aI3209
aI2548
aI1521
aI933
aI2967
aI2018
aI2131
aI377
aI2392
aI1584
aI290
aI1376
aI2061
aI291
aI382
aI1473
aI2080
aI2965
aI203
aI1944
aI2109
aI977
aI3464
aI1689
aI2460
aI2187
aI1913
aI1414
aI1470
aI2790
aI2445
aI2600
aI722
aI3200
aI3001
aI1402
aI2303
aI1038
aI2881
aI927
aI3523
aI1630
aI351
aI1027
aI2629
aI2688
aI266
aI681
aI2315
aI742
aI3056
aI3290
aI549
aI421
aI1797
aI2558
aI228
aI352
aI1568
aI434
aI413
aI2830
aI1540
aI2661
aI2040
aI642
aI671
aI1771
aI2197
aI207
aI1968
aI2024
aI3321
aI2636
aI50
aI2301
aI3326
aI2078
aI532
aI1752
aI1442
aI154
aI546
aI1520
aI160
aI1310
aI1947
aI2399
aI1915
aI422
aI542
aI2568
aI744
aI85
aI2964
aI2211
aI752
aI892
aI632
aI2864
aI1546
aI1745
aI2793
aI1609
aI1557
aI2095
aI2010
aI2916
aI1774
aI1184
aI226
aI2167
aI3390
aI2246
aI1326
aI2890
aI432
aI751
aI2481
aI1874
aI1964
aI2347
aI1537
aI665
aI3471
aI966
aI1738
aI1080
aI2843
aI3219
aI2505
aI260
aI2123
aI1167
aI737
aI1119
aI2116
aI1173
aI2442
aI3157
aI3483
aI253
aI900
aI2771
aI430
aI2034
aI1329
aI1611
aI2497
aI1449
aI1596
aI1120
aI1841
aI1398
aI1250
aI2254
aI2898
aI2859
aI1441
aI1333
aI3458
aI259
aI1854
aI2476
aI2778
aI601
aI16
aI687
aI373
aI1877
aI1604
aI1926
aI437
aI265
aI3393
aI970
aI1843
aI187
aI1682
aI2459
aI202
aI1902
aI2703
aI1654
aI477
aa(lp4
I3515
aI2178
aI1474
aI2668
aI3233
aI2161
aI600
aI2896
aI391
aI2185
aI1315
aI3234
aI3285
aI1456
aI1445
aI22
aI2683
aI2342
aI2909
aI2518
aI1073
aI629
aI649
aI443
aI1298
aI1366
aI2933
aI2240
aI2386
aI706
aI125
aI281
aI263
aI653
aI159
aI116
aI2414
aI3037
aI841
aI3278
aI3149
aI1924
aI1952
aI438
aI3369
aI1273
aI1821
aI1857
aI2754
aI813
aI3358
aI848
aI2671
aI3126
aI209
aI1891
aI3525
aI3405
aI829
aI731
aI854
aI241
aI383
aI635
aI2081
aI132
aI2920
aI3155
aI3191
aI2583
aI2763
aI2856
aI1586
aI1042
aI64
aI3138
aI3408
aI2389
aI2318
aI2606
aI1636
aI1772
aI131
aI3230
aI362
aI3038
aI2982
aI3418
aI1091
aI2846
aI3339
aI2980
aI2173
aI844
aI983
aI26
aI1025
aI21
aI3111
aI3120
aI631
aI2613
aI1103
aI1289
aI3299
aI618
aI1368
aI3136
aI3124
aI2938
aI3021
aI833
aI2958
aI2880
aI3151
aI1587
aI2817
aI2119
aI1882
aI1661
aI1020
aI2062
aI2472
aI2196
aI1779
aI1245
aI136
aI3106
aI1552
aI564
aI1963
aI1813
aI2607
aI65
aI2089
aI110
aI2582
aI1302
aI2602
aI2270
aI2026
aI2490
aI1622
aI965
aI1497
aI182
aI2149
aI2072
aI2407
aI1715
aI2626
aI2038
aI3058
aI2486
aI1163
aI2105
aI1898
aI1242
aI1988
aI2751
aI3264
aI72
aI770
aI1051
aI3307
aI2714
aI489
aI2456
aI661
aI2365
aI504
aI2344
aI974
aI1762
aI1286
aI1981
aI1635
aI1912
aI1777
aI2761
aI776
aI1121
aI2693
aI2845
aI926
aI3459
aI2249
aI1709
aI143
aI3044
aI1651
aI147
aI2337
aI11
aI1591
aI1496
aI76
aI464
aI1932
aI1805
aI2774
aI2102
aI2710
aI2100
aI1593
aI2304
aI1358
aI2935
aI1323
aI2863
aI968
aI256
aI604
aI1075
aI3102
aI3190
aI2023
aI3047
aI3055
aI1308
aI1204
aI503
aI2282
aI896
aI2059
aI3002
aI1686
aI387
aI152
aI2258
aI2234
aI1927
aI1361
aI3341
aI1058
aI3174
aI543
aI1658
aI2925
aI2039
aI476
aI2313
aI1543
aI1081
aI2103
aI2500
aI1512
aI937
aI1325
aI1755
aI2420
aI3291
aI1293
aI3148
aI1938
aI1634
aI498
aI3372
aI2664
aI3052
aI2011
aI1789
aI2812
aI2563
aI1711
aI2988
aI1144
aI1679
aI2813
aI320
aI2649
aI727
aI512
aI583
aI2597
aI851
aI90
aI1730
aI69
aI621
aI545
aI2226
aI157
aI167
aI2170
aI2675
aI1355
aI2818
aI1943
aI1492
aI726
aI2557
aI1736
aI293
aI789
aI1494
aI2139
aI2586
aI2892
aI440
aI2507
aI284
aI364
aI1851
aI2432
aI39
aI1006
aI3274
aI2776
aI524
aI108
aI1897
aI1348
aI296
aI784
aI897
aI1327
aI1031
aI2208
aI1481
aI1887
aI142
aI643
aI1193
aI2066
aI1746
aI247
aI3087
aI2802
aI1359
aI2566
aI2663
aI2370
aI740
aI2231
aI1154
aI2560
aI795
aI2015
aI149
aI2903
aI1463
aI2175
aI1903
aI792
aI1314
aI2889
aI38
aI3265
aI103
aI1231
aI825
aa(lp5
I3426
aI2542
aI3323
aI2656
aI3510
aI469
aI1451
aI3318
aI2573
aI1431
aI1869
aI520
aI1146
aI2489
aI821
aI1956
aI318
aI3325
aI2339
aI1321
aI2044
aI876
aI459
aI1183
aI1588
aI764
aI1744
aI870
aI353
aI1900
aI3090
aI2875
aI3023
aI1681
aI1940
aI2135
aI2144
aI92
aI229
aI1800
aI2207
aI1170
aI1139
aI2702
aI1283
aI2689
aI3223
aI3213
aI3449
aI1029
aI115
aI140
aI3228
aI262
aI3143
aI1509
aI380
aI1037
aI563
aI3152
aI1649
aI3354
aI1263
aI463
aI1261
aI676
aI3313
aI785
aI922
aI2986
aI411
aI493
aI2126
aI2670
aI2953
aI2284
aI1802
aI1608
aI1571
aI1126
aI2274
aI846
aI2247
aI3443
aI1407
aI2522
aI1529
aI481
aI2299
aI1909
aI236
aI1157
aI932
aI2433
aI725
aI996
aI3162
aI3509
aI1295
aI404
aI1450
aI174
aI2162
aI3506
aI425
aI533
aI2805
aI1052
aI2241
aI409
aI2093
aI1979
aI184
aI2101
aI1344
aI2092
aI1086
aI3246
aI1471
aI1905
aI812
aI1790
aI1280
aI84
aI2159
aI2943
aI339
aI1416
aI2020
aI3427
aI249
aI2897
aI2717
aI1892
aI1406
aI2182
aI2824
aI2905
aI3224
aI88
aI1828
aI1976
aI3085
aI1165
aI1429
aI579
aI2218
aI2591
aI1069
aI1324
aI188
aI1467
aI1116
aI54
aI1816
aI1739
aI2183
aI62
aI49
aI2474
aI238
aI1663
aI1349
aI3011
aI1001
aI1676
aI342
aI677
aI104
aI2329
aI1465
aI2929
aI405
aI2848
aI326
aI3518
aI2888
aI1257
aI3089
aI962
aI2931
aI1683
aI2978
aI243
aI433
aI2323
aI762
aI1653
aI1560
aI3343
aI2150
aI1149
aI758
aI502
aI913
aI925
aI3386
aI1666
aI2205
aI749
aI1446
aI3389
aI1342
aI1484
aI779
aI664
aI2811
aI1226
aI2816
aI2317
aI399
aI2262
aI475
aI1453
aI880
aI521
aI2145
aI2737
aI3160
aI2388
aI2709
aI1918
aI2730
aI3304
aI2216
aI1801
aI1100
aI2032
aI251
aI1697
aI145
aI370
aI1881
aI1411
aI2666
aI1829
aI3074
aI1523
aI3096
aI2413
aI3333
aI712
aI2434
aI2293
aI2525
aI1513
aI578
aI3226
aI3410
aI980
aI950
aI3288
aI2728
aI839
aI2311
aI3007
aI988
aI2962
aI2908
aI1732
aI1578
aI83
aI1775
aI3300
aI3201
aI1527
aI1221
aI3182
aI2690
aI2979
aI2058
aI947
aI254
aI2822
aI905
aI2395
aI701
aI690
aI1013
aI1759
aI14
aI1675
aI2043
aI1281
aI2828
aI2645
aI1053
aI1419
aI775
aI1277
aI2975
aI743
aI3412
aI1541
aI1825
aI2463
aI1876
aI288
aI1489
aI1005
aI1992
aI435
aI587
aI2559
aI3503
aI3093
aI2382
aI1687
aI1282
aI3003
aI2073
aI3017
aI1147
aI2134
aI1896
aI1364
aI1804
aI2033
aI1378
aI511
aI170
aI1941
aI2496
aI349
aI2911
aI2826
aI2832
aI1830
aI2677
aI3032
aI59
aI3208
aI1064
aI325
aI1258
aI2223
aI384
aI242
aI1181
aI2672
aI1505
aI2781
aI3487
aI3101
aI1109
aI3029
aI1565
aI1977
aI462
aI981
aI1574
aI2005
aa(lp6
I1084
aI2279
aI1660
aI3266
aI1895
aI3417
aI6
aI2995
aI508
aI118
aI334
aI2328
aI3357
aI2267
aI1955
aI2641
aI915
aI1980
aI323
aI1792
aI3492
aI1367
aI270
aI1122
aI1627
aI3434
aI837
aI736
aI1934
aI2390
aI3036
aI1549
aI656
aI1623
aI216
aI526
aI2143
aI283
aI1538
aI1432
aI1860
aI2088
aI2658
aI1893
aI245
aI2045
aI429
aI672
aI100
aI3030
aI315
aI1448
aI2160
aI1632
aI2423
aI1278
aI1597
aI948
aI2646
aI3302
aI1765
aI710
aI452
aI1056
aI2541
aI761
aI2130
aI774
aI2760
aI2538
aI2961
aI2954
aI2539
aI15
aI2013
aI1965
aI1722
aI3028
aI32
aI1030
aI2417
aI2740
aI302
aI646
aI1670
aI31
aI982
aI2509
aI327
aI935
aI2242
aI956
aI1399
aI3146
aI1174
aI1079
aI519
aI37
aI859
aI3337
aI810
aI2616
aI1143
aI3082
aI1482
aI2269
aI2623
aI1517
aI2006
aI2394
aI2206
aI2627
aI3377
aI1440
aI68
aI928
aI3156
aI659
aI3294
aI101
aI577
aI1598
aI1668
aI675
aI1479
aI1153
aI2017
aI2393
aI3442
aI480
aI0
aI1455
aI3203
aI510
aI2780
aI2567
aI2727
aI324
aI1870
aI1065
aI888
aI1967
aI3494
aI1503
aI1135
aI3189
aI3334
aI3336
aI107
aI1370
aI199
aI969
aI474
aI1685
aI55
aI1386
aI1138
aI3276
aI1667
aI1211
aI1124
aI3327
aI584
aI395
aI428
aI3353
aI2029
aI200
aI1811
aI2884
aI2521
aI1225
aI3316
aI2075
aI2704
aI126
aI1839
aI741
aI1931
aI3235
aI3272
aI2510
aI1162
aI3413
aI1276
aI2910
aI2650
aI139
aI879
aI2691
aI2971
aI1756
aI3476
aI3070
aI1996
aI1712
aI3385
aI2959
aI286
aI1592
aI994
aI783
aI544
aI1112
aI2687
aI2536
aI2441
aI3088
aI1423
aI3356
aI3521
aI1454
aI213
aI2738
aI345
aI1246
aI818
aI1581
aI1729
aI568
aI1808
aI619
aI3034
aI2782
aI501
aI2294
aI363
aI3186
aI1669
aI3490
aI1390
aI2470
aI3067
aI2137
aI1585
aI887
aI3497
aI739
aI1210
aI99
aI2618
aI560
aI444
aI460
aI3451
aI457
aI2973
aI1785
aI2679
aI2789
aI2305
aI472
aI1365
aI2628
aI890
aI2495
aI2147
aI1716
aI566
aI2801
aI1017
aI1335
aI1098
aI594
aI2803
aI3392
aI2310
aI137
aI2732
aI3257
aI492
aI2114
aI2104
aI669
aI1105
aI8
aI3331
aI2807
aI448
aI2171
aI3116
aI2570
aI791
aI1536
aI2783
aI2718
aI3423
aI2794
aI1761
aI943
aI1533
aI3172
aI337
aI993
aI1177
aI1039
aI2398
aI19
aI2640
aI297
aI406
aI2280
aI2784
aI3391
aI258
aI41
aI2461
aI2404
aI2952
aI1856
aI3416
aI268
aI81
aI1786
aI3212
aI2272
aI2108
aI1936
aI338
aI1458
aI771
aI663
aI376
aI3158
aI500
aI2416
aI1657
aI1610
aI691
aI2940
aI3094
aI2735
aI864
aI1544
aI162
aI2278
aI1127
aI1254
aI114
aI28
aI1332
aI1865
aI946
aI2996
aI3350
aI153
aI2720
aI3526
aI1982
aI768
aI1384
aI2053
aa(lp7
I1511
aI3370
aI871
aI1925
aI2713
aI1959
aI1971
aI2124
aI1949
aI120
aI684
aI1018
aI3241
aI3081
aI494
aI3079
aI2579
aI2188
aI1937
aI1935
aI2345
aI780
aI1754
aI3092
aI2255
aI2651
aI1878
aI1002
aI1034
aI2411
aI2862
aI1970
aI2820
aI1294
aI2572
aI2468
aI3216
aI1186
aI2453
aI372
aI393
aI248
aI2498
aI3287
aI823
aI872
aI2380
aI1994
aI1382
aI3169
aI2815
aI61
aI3292
aI1548
aI1033
aI3024
aI2866
aI2232
aI2604
aI570
aI1452
aI2217
aI5
aI3293
aI3376
aI939
aI1831
aI1459
aI630
aI2306
aI2808
aI2419
aI3403
aI1485
aI636
aI233
aI3077
aI3447
aI1942
aI1602
aI1595
aI2625
aI124
aI2991
aI3478
aI67
aI1601
aI801
aI1908
aI1741
aI1233
aI2715
aI3511
aI1032
aI2694
aI1408
aI1863
aI2002
aI43
aI958
aI1437
aI3436
aI1224
aI662
aI102
aI2410
aI396
aI807
aI1096
aI2635
aI1864
aI1016
aI729
aI2659
aI3250
aI505
aI1403
aI2932
aI424
aI3256
aI2527
aI3185
aI3308
aI3043
aI525
aI176
aI2210
aI2624
aI2950
aI3049
aI695
aI1684
aI1929
aI212
aI3446
aI1035
aI1136
aI280
aI1531
aI973
aI2632
aI1997
aI2549
aI1852
aI386
aI1696
aI1838
aI972
aI3022
aI2096
aI883
aI1814
aI3387
aI2855
aI449
aI2800
aI335
aI1567
aI3367
aI2792
aI1415
aI3437
aI3320
aI903
aI3507
aI3214
aI3371
aI1987
aI2773
aI3008
aI1794
aI2338
aI2052
aI3244
aI45
aI2430
aI1872
aI3457
aI275
aI3502
aI2708
aI1048
aI918
aI1405
aI3480
aI3440
aI3071
aI53
aI2633
aI204
aI1569
aI2117
aI889
aI1911
aI2571
aI1191
aI198
aI3486
aI1950
aI78
aI2129
aI3147
aI1692
aI516
aI1607
aI2874
aI201
aI3439
aI3364
aI2657
aI639
aI2435
aI447
aI1962
aI3380
aI2295
aI540
aI1539
aI3384
aI976
aI2528
aI686
aI881
aI2523
aI1766
aI697
aI1791
aI588
aI2989
aI23
aI2764
aI1695
aI1699
aI3170
aI2333
aI2547
aI1055
aI820
aI1928
aI1235
aI156
aI2067
aI599
aI2125
aI2257
aI2375
aI1723
aI2809
aI1986
aI1883
aI234
aI277
aI2111
aI782
aI3332
aI2934
aI206
aI3466
aI1150
aI1945
aI644
aI1040
aI633
aI617
aI2084
aI77
aI1316
aI3010
aI3281
aI683
aI2578
aI1886
aI2085
aI1901
aI3042
aI2858
aI2556
aI2009
aI2384
aI3508
aI305
aI427
aI418
aI1179
aI1850
aI3053
aI3489
aI2669
aI2367
aI25
aI2128
aI1502
aI2148
aI180
aI657
aI1303
aI1849
aI1577
aI2191
aI1230
aI735
aI1890
aI1842
aI2027
aI416
aI1238
aI1345
aI1914
aI921
aI1307
aI2466
aI1780
aI2914
aI1951
aI2957
aI3220
aI344
aI1884
aI2619
aI453
aI1868
aI614
aI2676
aI670
aI2503
aI340
aI3346
aI3123
aI439
aI1702
aI2200
aI1781
aI127
aI507
aI1645
aI451
aI2501
aI756
aI3433
aI3425
aI441
aI571
aI845
aI1142
aI10
aI2605
aI7
aI1753
aI2036
aI537
aI165
aI3402
aa(lp8
I1573
aI2981
aI777
aI1328
aI3438
aI1312
aI1023
aI222
aI359
aI3271
aI2887
aI134
aI2831
aI3342
aI3178
aI567
aI1498
aI71
aI3069
aI1969
aI766
aI3119
aI1758
aI3131
aI1015
aI128
aI3237
aI1764
aI803
aI2712
aI3039
aI3196
aI3078
aI3167
aI759
aI1678
aI2804
aI3373
aI3004
aI2930
aI2682
aI278
aI1468
aI2169
aI893
aI2983
aI626
aI1243
aI423
aI1989
aI2426
aI1400
aI1062
aI3254
aI1155
aI1285
aI2814
aI3469
aI2904
aI2165
aI2440
aI3238
aI2990
aI1625
aI654
aI2063
aI2705
aI442
aI1822
aI1336
aI1534
aI2350
aI1769
aI3404
aI936
aI2057
aI2612
aI1698
aI2346
aI1767
aI2343
aI2383
aI2877
aI1720
aI2209
aI3098
aI1920
aI2248
aI979
aI1267
aI3033
aI361
aI2312
aI2186
aI1363
aI183
aI121
aI1613
aI1008
aI246
aI573
aI3135
aI2923
aI2941
aI1664
aI1530
aI1721
aI1819
aI95
aI949
aI796
aI3379
aI1665
aI3477
aI1867
aI1818
aI1486
aI2326
aI830
aI1734
aI1133
aI1443
aI1071
aI3289
aI1624
aI2906
aI2030
aI1107
aI2546
aI3140
aI2601
aI2997
aI3303
aI3064
aI461
aI279
aI2391
aI827
aI2048
aI562
aI2268
aI3398
aI2307
aI2483
aI1004
aI1097
aI1438
aI916
aI2376
aI1237
aI150
aI1185
aI2327
aI753
aI205
aI842
aI2749
aI272
aI991
aI2772
aI3041
aI1778
aI2094
aI2309
aI1117
aI1691
aI2091
aI815
aI1070
aI385
aI538
aI1337
aI1284
aI704
aI1646
aI1550
aI754
aI816
aI294
aI2287
aI3286
aI1159
aI2212
aI1420
aI1247
aI141
aI2534
aI2963
aI30
aI2181
aI1743
aI868
aI942
aI615
aI2238
aI1647
aI179
aI3322
aI1115
aI113
aI1322
aI2532
aI3117
aI3360
aI2136
aI1089
aI1806
aI2455
aI360
aI1161
aI330
aI3452
aI146
aI3225
aI1125
aI3359
aI2829
aI3065
aI1249
aI1434
aI3335
aI2099
aI1059
aI1014
aI3474
aI2833
aI1192
aI2821
aI2883
aI3236
aI2227
aI1275
aI3205
aI1655
aI2022
aI2574
aI224
aI2202
aI2321
aI3026
aI1933
aI1522
aI2266
aI227
aI1140
aI2369
aI232
aI1508
aI1620
aI2696
aI786
aI2851
aI1742
aI3068
aI1824
aI3014
aI2745
aI596
aI2041
aI2968
aI1216
aI419
aI255
aI197
aI3505
aI1369
aI2220
aI666
aI2842
aI2291
aI2316
aI3277
aI1948
aI3444
aI3171
aI1589
aI3491
aI1311
aI473
aI1188
aI1102
aI648
aI800
aI2177
aI3420
aI2748
aI799
aI343
aI267
aI733
aI1787
aI530
aI2512
aI454
aI2655
aI1939
aI2865
aI650
aI769
aI3159
aI2662
aI3479
aI119
aI826
aI2060
aI2639
aI1094
aI2405
aI1946
aI436
aI2769
aI2850
aI2224
aI3045
aI869
aI1643
aI2972
aI1214
aI553
aI1290
aI793
aI559
aI2341
aI3066
aI2695
aI1457
aI2000
aI582
aI2275
aI2985
aI3015
aI1704
aI1129
aI1993
aI1703
aI1248
aI2077
aI1749
aI2955
aI2834
aI773
aI998
aI1401
aI832
aI541
aI2519
aI2446
aI2042
aI240
aI3050
aI257
aI2239
aa(lp9
I1826
aI875
aI878
aI2993
aI828
aI466
aI2581
aI2401
aI576
aI2779
aI3105
aI2853
aI911
aI1532
aI1208
aI2425
aI2352
aI420
aI2871
aI586
aI1782
aI3013
aI1009
aI2204
aI1583
aI613
aI2403
aI1478
aI1373
aI2750
aI3282
aI129
aI2561
aI550
aI3027
aI348
aI2857
aI161
aI1972
aI34
aI368
aI987
aI1616
aI355
aI723
aI2351
aI2221
aI1773
aI2120
aI3284
aI910
aI894
aI309
aI3310
aI781
aI1141
aI1054
aI1619
aI185
aI1460
aI3315
aI2686
aI1199
aI2564
aI1393
aI3103
aI2825
aI2653
aI311
aI2273
aI1010
aI3401
aI218
aI1319
aI1377
aI1576
aI2876
aI1279
aI3086
aI2484
aI992
aI1301
aI623
aI2915
aI2215
aI1998
aI2614
aI975
aI2767
aI2759
aI929
aI2977
aI1404
aI3415
aI1417
aI231
aI2112
aI164
aI660
aI2079
aI1287
aI3314
aI2325
aI554
aI314
aI2074
aI2479
aI3012
aI1555
aI1338
aI3262
aI2047
aI964
aI867
aI814
aI1156
aI951
aI3145
aI1061
aI117
aI1728
aI2049
aI2031
aI3073
aI74
aI506
aI967
aI1108
aI138
aI2681
aI2358
aI954
aI907
aI1428
aI3118
aI3422
aI497
aI3166
aI3204
aI2154
aI809
aI3109
aI412
aI2777
aI1466
aI835
aI2166
aI299
aI515
aI1957
aI2766
aI1641
aI1906
aI1545
aI1145
aI1823
aI1421
aI223
aI2872
aI2590
aI3411
aI2835
aI2397
aI1213
aI2176
aI1043
aI122
aI426
aI593
aI882
aI971
aI2575
aI1510
aI718
aI2674
aI2785
aI990
aI760
aI2667
aI1180
aI1353
aI3263
aI901
aI1306
aI3075
aI1644
aI312
aI3035
aI3142
aI2201
aI3139
aI853
aI1904
aI356
aI3374
aI1973
aI1266
aI2947
aI3429
aI3113
aI3199
aI2747
aI1334
aI51
aI3165
aI861
aI417
aI1374
aI2457
aI874
aI2355
aI18
aI2276
aI2711
aI555
aI2046
aI3475
aI3344
aI536
aI13
aI2589
aI2179
aI367
aI2016
aI1984
aI1637
aI2438
aI2443
aI1356
aI953
aI1045
aI1392
aI2926
aI1046
aI1501
aI3134
aI2530
aI1093
aI852
aI788
aI2138
aI239
aI1747
aI2936
aI400
aI952
aI3215
aI1259
aI3283
aI3309
aI173
aI2840
aI1606
aI2895
aI963
aI3504
aI2070
aI730
aI73
aI1028
aI3183
aI522
aI738
aI3520
aI2366
aI1985
aI1621
aI1910
aI86
aI3340
aI1223
aI3399
aI2787
aI721
aI89
aI1673
aI1706
aI1718
aI2292
aI1921
aI1701
aI20
aI308
aI3432
aI479
aI3297
aI1958
aI917
aI997
aI3516
aI3312
aI3453
aI919
aI374
aI3176
aI1318
aI3522
aI886
aI2155
aI1504
aI1066
aI2796
aI3454
aI3501
aI1425
aI680
aI3059
aI2620
aI458
aI2944
aI1853
aI1615
aI397
aI2956
aI3122
aI3351
aI2621
aI4
aI1041
aI2198
aI2021
aI1110
aI109
aI94
aI2924
aI1487
aI1375
aI2083
aI547
aI1309
aI3054
aI1262
aI33
aI1803
aI1187
aI2610
aI2250
aI750
aI1693
aI2837
aI552
aI3046
aI3150
aI1347
aI2867
aI1480
aI1137
aI2643
aI806
aI3324
aI1209
aI1026
aa(lp10
I1
aI9
aI24
aI29
aI42
aI46
aI57
aI70
aI79
aI80
aI87
aI98
aI105
aI112
aI155
aI166
aI168
aI169
aI172
aI175
aI191
aI194
aI196
aI208
aI214
aI217
aI219
aI237
aI250
aI252
aI261
aI273
aI282
aI289
aI295
aI300
aI301
aI303
aI306
aI313
aI322
aI328
aI332
aI341
aI350
aI365
aI394
aI401
aI407
aI414
aI431
aI465
aI471
aI487
aI509
aI528
aI556
aI557
aI565
aI569
aI580
aI589
aI603
aI607
aI620
aI645
aI647
aI651
aI652
aI674
aI679
aI685
aI689
aI699
aI703
aI707
aI715
aI716
aI719
aI734
aI748
aI772
aI808
aI838
aI855
aI863
aI873
aI884
aI891
aI899
aI906
aI912
aI923
aI924
aI930
aI995
aI1007
aI1012
aI1021
aI1047
aI1049
aI1050
aI1057
aI1060
aI1072
aI1076
aI1077
aI1078
aI1082
aI1088
aI1104
aI1106
aI1111
aI1128
aI1131
aI1148
aI1152
aI1166
aI1172
aI1178
aI1182
aI1189
aI1194
aI1203
aI1205
aI1206
aI1219
aI1222
aI1227
aI1236
aI1241
aI1269
aI1272
aI1291
aI1297
aI1300
aI1320
aI1372
aI1379
aI1391
aI1395
aI1409
aI1418
aI1422
aI1424
aI1426
aI1444
aI1447
aI1464
aI1483
aI1488
aI1491
aI1495
aI1500
aI1514
aI1516
aI1519
aI1524
aI1526
aI1528
aI1542
aI1553
aI1556
aI1558
aI1559
aI1564
aI1570
aI1572
aI1582
aI1612
aI1617
aI1629
aI1631
aI1642
aI1652
aI1659
aI1680
aI1714
aI1733
aI1737
aI1740
aI1748
aI1757
aI1770
aI1793
aI1795
aI1799
aI1809
aI1833
aI1836
aI1837
aI1844
aI1859
aI1862
aI1871
aI1875
aI1880
aI1922
aI1966
aI1983
aI2001
aI2003
aI2004
aI2007
aI2014
aI2037
aI2051
aI2054
aI2056
aI2064
aI2076
aI2086
aI2090
aI2132
aI2133
aI2142
aI2146
aI2152
aI2168
aI2184
aI2192
aI2213
aI2219
aI2228
aI2233
aI2245
aI2256
aI2260
aI2281
aI2288
aI2297
aI2300
aI2332
aI2334
aI2360
aI2363
aI2368
aI2378
aI2381
aI2385
aI2396
aI2409
aI2415
aI2452
aI2462
aI2467
aI2473
aI2493
aI2494
aI2506
aI2511
aI2520
aI2531
aI2543
aI2544
aI2550
aI2576
aI2599
aI2611
aI2617
aI2630
aI2634
aI2642
aI2654
aI2673
aI2680
aI2692
aI2699
aI2700
aI2707
aI2716
aI2721
aI2726
aI2731
aI2734
aI2741
aI2743
aI2744
aI2752
aI2756
aI2770
aI2775
aI2795
aI2798
aI2799
aI2806
aI2810
aI2836
aI2838
aI2839
aI2861
aI2882
aI2885
aI2886
aI2893
aI2900
aI2902
aI2907
aI2917
aI2919
aI2939
aI2942
aI2960
aI2966
aI2970
aI2984
aI3009
aI3025
aI3031
aI3057
aI3062
aI3110
aI3133
aI3141
aI3173
aI3184
aI3187
aI3188
aI3194
aI3195
aI3198
aI3202
aI3206
aI3218
aI3221
aI3232
aI3242
aI3243
aI3251
aI3258
aI3270
aI3275
aI3279
aI3296
aI3298
aI3319
aI3349
aI3352
aI3362
aI3363
aI3366
aI3378
aI3394
aI3395
aI3396
aI3397
aI3419
aI3421
aI3428
aI3430
aI3441
aI3460
aI3463
aI3472
aI3482
aI3488
aI3499
aI3512
aI3513
aa.