(lp0
(lp1
I620
aI2790
aI2224
aI2754
aI1719
aI1331
aI2530
aI299
aI2274
aI52
aI2778
aI2419
aI2044
aI3013
aI1353
aI643
aI2162
aI2836
aI1878
aI1168
aI2351
aI2408
aI372
aI3171
aI133
aI3086
aI1921
aI2814
aI166
aI2867
aI1672
aI168
aI669
aI479
aI0
aI933
aI1049
aI1674
aI2347
aI1770
aI2264
aI3103
aI3255
aI2773
aI3035
aI1455
aI3308
aI3328
aI1623
aI14
aI1131
aI1201
aI2555
aI3128
aI1759
aI148
aI2316
aI184
aI610
aI436
aI2042
aI4
aI2998
aI335
aI2569
aI961
aI2359
aI1675
aI1745
aI967
aI1433
aI2236
aI3364
aI591
aI944
aI2581
aI3000
aI568
aI221
aI25
aI2811
aI1187
aI2690
aI279
aI90
aI520
aI1535
aI1914
aI1487
aI1493
aI792
aI229
aI2390
aI906
aI2703
aI1302
aI1128
aI685
aI3369
aI2911
aI3186
aI392
aI2031
aI2068
aI1635
aI459
aI1454
aI3038
aI2853
aI760
aI1160
aI979
aI1285
aI791
aI2117
aI1648
aI3139
aI533
aI1469
aI1214
aI1103
aI1351
aI1200
aI314
aI579
aI2666
aI692
aI2624
aI926
aI1438
aI2452
aI60
aI946
aI2516
aI1875
aI1629
aI3500
aI959
aI2501
aI87
aI2631
aI725
aI2912
aI332
aI2101
aI1657
aI3465
aI1202
aI1552
aI1074
aI3428
aI1053
aI2321
aI3408
aI2310
aI274
aI776
aI46
aI489
aI1356
aI966
aI989
aI3265
aI1256
aI2234
aI1755
aI375
aI883
aI2645
aI2551
aI248
aI783
aI1308
aI1158
aI3169
aI1606
aI706
aI1604
aI1405
aI1204
aI3270
aI374
aI77
aI2057
aI1720
aI1833
aI121
aI71
aI2240
aI287
aI2056
aI1429
aI1934
aI1139
aI1999
aI1754
aI1939
aI1470
aI353
aI85
aI3496
aI2958
aI1130
aI1906
aI1607
aI875
aI919
aI535
aI2717
aI3356
aI69
aI2242
aI1195
aI1291
aI1100
aI1084
aI2436
aI1208
aI2139
aI3371
aI1898
aI709
aI2731
aI2086
aI1304
aI3210
aI1920
aI634
aI2706
aI108
aI1940
aI2863
aI2728
aI385
aI1070
aI2609
aI2980
aI2984
aI345
aI1427
aI625
aI928
aI2360
aI804
aI1653
aI3449
aI665
aI3445
aI3397
aI3391
aI2037
aI3495
aI1985
aI2011
aI1415
aI615
aI2146
aI3475
aI2473
aI515
aI738
aI2582
aI2804
aI1912
aI1848
aI423
aI3130
aI1554
aI2062
aI3437
aI238
aI2642
aI3462
aI1312
aI3318
aI316
aI2788
aI1476
aI1263
aI1318
aI499
aI781
aI395
aI323
aI732
aI243
aI2067
aI3069
aI15
aI1869
aI97
aI3492
aI2858
aI1196
aI2658
aI1864
aI2180
aI3259
aI1002
aI1840
aI540
aI156
aI384
aI1495
aI575
aI2900
aI1164
aI718
aI394
aI2020
aI3221
aI2350
aI780
aI2157
aI2239
aI3189
aI1039
aI2027
aI2746
aI3208
aI1027
aI1531
aI1798
aI2714
aI843
aI1141
aI658
aI2030
aI259
aI1498
aI3448
aI512
aI2860
aI2669
aI1639
aI2914
aI3333
aI2114
aI2722
aI2927
aI1019
aI2337
aI1137
aI438
aI805
aI1608
aI2929
aI2550
aI2353
aI2644
aI537
aa(lp2
I2789
aI2810
aI1300
aI3043
aI2259
aI2291
aI2620
aI636
aI2670
aI812
aI1210
aI1024
aI536
aI638
aI1434
aI1081
aI1503
aI3361
aI585
aI2729
aI1272
aI3269
aI574
aI2336
aI1424
aI2697
aI1149
aI2207
aI3234
aI230
aI2956
aI3274
aI1172
aI322
aI2286
aI191
aI3215
aI2909
aI941
aI787
aI1529
aI1786
aI1944
aI1072
aI2214
aI3402
aI1761
aI382
aI2553
aI2689
aI1008
aI2396
aI1274
aI700
aI2622
aI2610
aI2829
aI1590
aI247
aI488
aI2918
aI2470
aI3034
aI2737
aI1774
aI655
aI1025
aI1378
aI2590
aI1400
aI3159
aI2388
aI270
aI734
aI689
aI1478
aI519
aI65
aI2932
aI714
aI1636
aI474
aI1766
aI2880
aI308
aI1297
aI202
aI2211
aI3066
aI496
aI3161
aI1359
aI951
aI160
aI528
aI2970
aI1471
aI3309
aI1101
aI3119
aI2309
aI2018
aI2237
aI1965
aI59
aI3390
aI2887
aI1566
aI2079
aI2029
aI333
aI888
aI2371
aI963
aI880
aI196
aI2486
aI3245
aI2041
aI2391
aI2134
aI581
aI2269
aI368
aI654
aI1658
aI1119
aI954
aI1706
aI605
aI406
aI3455
aI1586
aI1776
aI1075
aI1384
aI667
aI3256
aI2082
aI227
aI1076
aI884
aI3138
aI3123
aI867
aI1996
aI317
aI1800
aI2576
aI2884
aI679
aI2640
aI1802
aI66
aI2105
aI2943
aI1910
aI3479
aI410
aI2151
aI257
aI3052
aI190
aI1822
aI3181
aI686
aI1034
aI282
aI1226
aI1396
aI3376
aI3447
aI170
aI2402
aI1563
aI3068
aI1895
aI2992
aI691
aI3049
aI3502
aI1452
aI3393
aI3322
aI3332
aI2916
aI36
aI355
aI607
aI141
aI3487
aI2038
aI3382
aI413
aI1295
aI2440
aI2366
aI599
aI2755
aI1872
aI441
aI1756
aI1409
aI113
aI1854
aI1421
aI58
aI145
aI2230
aI1388
aI927
aI2990
aI1532
aI1041
aI1599
aI1850
aI1739
aI2305
aI3406
aI1363
aI209
aI3488
aI2857
aI344
aI2774
aI543
aI589
aI1661
aI215
aI2500
aI1890
aI2682
aI2381
aI2965
aI2177
aI1418
aI378
aI1419
aI1957
aI3513
aI2504
aI3220
aI214
aI1333
aI3305
aI2494
aI3403
aI1270
aI2231
aI2816
aI1708
aI2014
aI304
aI675
aI13
aI811
aI1234
aI2498
aI2326
aI1682
aI1881
aI3392
aI524
aI3310
aI3178
aI2202
aI555
aI1538
aI1799
aI788
aI2308
aI176
aI1320
aI2856
aI1537
aI1397
aI1303
aI2735
aI1723
aI2817
aI3407
aI1687
aI2201
aI144
aI3190
aI2488
aI2420
aI2577
aI103
aI2738
aI303
aI879
aI1248
aI2263
aI1978
aI3179
aI796
aI2748
aI3108
aI3251
aI3023
aI1143
aI2996
aI298
aI376
aI1293
aI2945
aI978
aI117
aI233
aI2890
aI2508
aI429
aI2883
aI1679
aI1323
aI1540
aI2169
aI1215
aI1061
aI2668
aI1108
aI1768
aI1110
aI2534
aI2786
aI2205
aI2549
aI846
aI431
aI2438
aI1834
aI1009
aI602
aI1732
aI3218
aI1711
aI3358
aI2021
aI1355
aI2012
aI775
aI1224
aI1413
aI127
aI68
aI1728
aI359
aI603
aI2898
aI2683
aa(lp3
I2289
aI717
aI497
aI1205
aI1342
aI622
aI678
aI2879
aI2753
aI1662
aI2614
aI93
aI1956
aI905
aI2635
aI1485
aI285
aI2781
aI2828
aI3197
aI2441
aI2818
aI1163
aI2896
aI991
aI2303
aI3429
aI3285
aI2558
aI2687
aI1086
aI371
aI3072
aI3029
aI614
aI505
aI3127
aI2103
aI2686
aI612
aI2442
aI2923
aI971
aI1929
aI1104
aI842
aI1236
aI2187
aI729
aI2443
aI1727
aI1523
aI1548
aI3016
aI1763
aI2547
aI2210
aI2885
aI2646
aI818
aI3111
aI297
aI478
aI2757
aI3307
aI3380
aI2721
aI1624
aI152
aI1589
aI1349
aI695
aI1015
aI2718
aI1994
aI3135
aI3273
aI3396
aI3117
aI391
aI130
aI1990
aI1705
aI743
aI137
aI31
aI629
aI162
aI398
aI1796
aI701
aI3289
aI2805
aI2431
aI1734
aI2660
aI3518
aI266
aI2764
aI726
aI2531
aI1916
aI2060
aI101
aI325
aI765
aI2174
aI3485
aI1817
aI962
aI3350
aI3017
aI998
aI965
aI584
aI3453
aI840
aI2335
aI627
aI2629
aI439
aI852
aI2131
aI220
aI3292
aI2497
aI1099
aI296
aI2849
aI1340
aI1010
aI2256
aI142
aI2543
aI1067
aI2527
aI710
aI3458
aI2906
aI1696
aI977
aI1426
aI293
aI3499
aI3315
aI1412
aI2427
aI1673
aI1018
aI3440
aI34
aI254
aI2803
aI794
aI1832
aI1052
aI62
aI430
aI2493
aI1880
aI78
aI1611
aI483
aI819
aI1560
aI648
aI1918
aI1287
aI3347
aI3175
aI2573
aI3419
aI409
aI96
aI2847
aI48
aI606
aI2888
aI2248
aI3434
aI70
aI1837
aI3002
aI510
aI1235
aI3077
aI234
aI1496
aI3420
aI2238
aI2904
aI904
aI2982
aI916
aI1325
aI2565
aI1317
aI972
aI3146
aI1716
aI1276
aI542
aI1808
aI2632
aI2206
aI449
aI203
aI757
aI624
aI346
aI2258
aI1814
aI3326
aI2300
aI288
aI1391
aI2769
aI357
aI641
aI735
aI1591
aI1641
aI2212
aI752
aI3360
aI1587
aI2382
aI1109
aI739
aI1277
aI1307
aI468
aI2121
aI457
aI1021
aI1550
aI1185
aI3375
aI1013
aI769
aI1926
aI2619
aI1177
aI2199
aI2327
aI340
aI1938
aI2833
aI2070
aI2920
aI3054
aI1731
aI2428
aI1479
aI201
aI527
aI2897
aI51
aI339
aI115
aI3037
aI3198
aI1764
aI2948
aI768
aI1892
aI2414
aI2170
aI2225
aI1180
aI2355
aI2864
aI2118
aI600
aI1153
aI2468
aI509
aI1492
aI1767
aI1502
aI2244
aI639
aI1660
aI2977
aI1517
aI1395
aI1556
aI3252
aI2142
aI2254
aI403
aI2546
aI2648
aI1346
aI778
aI1513
aI280
aI1539
aI2400
aI2489
aI416
aI2596
aI1016
aI2600
aI94
aI3454
aI1896
aI3110
aI3268
aI644
aI3236
aI2354
aI2532
aI1541
aI530
aI2730
aI753
aI1045
aI671
aI3486
aI2026
aI619
aI1290
aI2373
aI154
aI2455
aI2893
aI1650
aI774
aI3368
aI1923
aI1927
aI292
aI2511
aI3230
aI283
aI1643
aI2771
aI990
aI1463
aI1468
aI2813
aI1267
aI225
aI381
aI838
aI1602
aI1633
aI2279
aI1683
aI1077
aa(lp4
I3456
aI3233
aI1358
aI3372
aI2482
aI506
aI565
aI278
aI1087
aI3232
aI2429
aI2149
aI3386
aI302
aI3020
aI3511
aI2843
aI3004
aI1642
aI1474
aI2343
aI3006
aI1852
aI2876
aI1713
aI750
aI223
aI3124
aI1785
aI1023
aI3342
aI2586
aI2084
aI1726
aI388
aI2418
aI23
aI764
aI3460
aI2129
aI12
aI1046
aI1526
aI2397
aI813
aI1514
aI2510
aI3214
aI3260
aI123
aI2939
aI872
aI2785
aI1216
aI688
aI1330
aI2895
aI1578
aI3227
aI2196
aI1348
aI300
aI917
aI3441
aI1557
aI1460
aI2338
aI3009
aI1309
aI1069
aI2276
aI1085
aI2059
aI2099
aI1609
aI43
aI911
aI2758
aI1946
aI1189
aI766
aI2265
aI321
aI790
aI1337
aI680
aI670
aI1174
aI3060
aI2063
aI5
aI179
aI102
aI3041
aI1490
aI539
aI119
aI2100
aI1945
aI1223
aI2709
aI541
aI104
aI2651
aI331
aI3141
aI1456
aI245
aI408
aI733
aI1298
aI1844
aI1458
aI305
aI659
aI1029
aI1464
aI415
aI2719
aI41
aI2233
aI3071
aI1090
aI649
aI2133
aI949
aI1284
aI1336
aI902
aI2701
aI1115
aI2974
aI3022
aI2652
aI1279
aI2800
aI1959
aI980
aI2525
aI1669
aI562
aI2873
aI2580
aI1332
aI2935
aI849
aI3418
aI1533
aI2656
aI3036
aI2562
aI49
aI1902
aI2540
aI1171
aI2597
aI2736
aI650
aI825
aI95
aI165
aI418
aI3080
aI181
aI2692
aI2878
aI2627
aI803
aI1760
aI1133
aI2835
aI2566
aI3306
aI3195
aI3287
aI873
aI759
aI1240
aI2160
aI1868
aI2061
aI2185
aI2733
aI2866
aI887
aI3096
aI3018
aI3003
aI507
aI114
aI2907
aI2584
aI501
aI2089
aI3223
aI3206
aI1411
aI1428
aI1909
aI626
aI1014
aI366
aI1443
aI1571
aI3400
aI2650
aI722
aI663
aI892
aI2988
aI252
aI2122
aI3365
aI1649
aI2848
aI742
aI908
aI242
aI1167
aI1968
aI1656
aI3039
aI1976
aI2987
aI477
aI1059
aI2152
aI2751
aI1603
aI3166
aI167
aI1740
aI1390
aI1092
aI1534
aI132
aI2767
aI1949
aI930
aI2762
aI1159
aI1394
aI1722
aI433
aI841
aI1065
aI2198
aI1480
aI3510
aI3296
aI2312
aI64
aI2161
aI1314
aI3362
aI1005
aI1787
aI6
aI3104
aI42
aI3363
aI1262
aI853
aI3115
aI2
aI249
aI3410
aI2859
aI2463
aI1250
aI2761
aI2772
aI3100
aI1991
aI273
aI91
aI1816
aI1032
aI839
aI3150
aI3508
aI328
aI1815
aI3081
aI116
aI2698
aI2513
aI1129
aI1691
aI556
aI3398
aI471
aI571
aI492
aI2989
aI1545
aI2323
aI2707
aI2132
aI2249
aI2342
aI1048
aI1245
aI3152
aI2015
aI2678
aI3286
aI713
aI1913
aI1876
aI435
aI2760
aI3222
aI1360
aI1147
aI18
aI827
aI3172
aI2150
aI465
aI1420
aI2618
aI1324
aI456
aI1370
aI1037
aI3282
aI412
aI1289
aI1113
aI687
aI2862
aI1152
aI1542
aI189
aI1436
aI3235
aI806
aI312
aI1178
aI2301
aI315
aI1057
aI1247
aI3300
aI2528
aI3444
aI2398
aI480
aI1974
aI3114
aa(lp5
I1951
aI2102
aI1885
aI3253
aI2407
aI2112
aI2049
aI3113
aI3008
aI3173
aI3196
aI1806
aI1193
aI2674
aI2368
aI1259
aI3092
aI861
aI2421
aI2852
aI1422
aI1311
aI3517
aI1712
aI2052
aI3011
aI798
aI2311
aI1953
aI1842
aI1788
aI1891
aI27
aI1207
aI921
aI2285
aI762
aI2598
aI2851
aI3388
aI1634
aI2154
aI2827
aI3078
aI1753
aI1294
aI2270
aI3184
aI1626
aI3314
aI2797
aI1319
aI3504
aI3261
aI2478
aI1033
aI578
aI799
aI860
aI3354
aI1127
aI2821
aI1401
aI76
aI3247
aI3271
aI1637
aI2495
aI1354
aI1173
aI2953
aI2957
aI2602
aI1361
aI910
aI262
aI1461
aI45
aI1253
aI2156
aI976
aI662
aI1961
aI891
aI2552
aI2025
aI2035
aI2182
aI2357
aI1899
aI1357
aI3323
aI3457
aI3241
aI1709
aI2964
aI2096
aI1440
aI560
aI727
aI1585
aI2039
aI2148
aI545
aI427
aI2075
aI425
aI3010
aI2262
aI1182
aI3137
aI2688
aI1273
aI2926
aI834
aI2676
aI396
aI407
aI3262
aI131
aI2216
aI3025
aI793
aI2460
aI2399
aI2222
aI604
aI1543
aI2968
aI896
aI2994
aI2779
aI1549
aI2110
aI1824
aI2613
aI740
aI2962
aI2507
aI3001
aI2019
aI2999
aI1678
aI237
aI3048
aI1663
aI3144
aI1227
aI947
aI2394
aI1630
aI2370
aI1667
aI828
aI2787
aI417
aI1695
aI2304
aI914
aI1871
aI2013
aI2241
aI666
aI3476
aI3409
aI2524
aI2288
aI2091
aI3478
aI2430
aI2172
aI583
aI275
aI2901
aI1577
aI1859
aI250
aI2743
aI2752
aI2854
aI3477
aI3431
aI1406
aI3512
aI2087
aI350
aI952
aI580
aI2036
aI2910
aI150
aI3140
aI3209
aI3155
aI945
aI815
aI1499
aI2130
aI301
aI2568
aI401
aI3295
aI1150
aI461
aI422
aI2065
aI1562
aI616
aI1598
aI3088
aI1327
aI2782
aI2076
aI1851
aI336
aI2116
aI3097
aI728
aI1125
aI866
aI2092
aI2034
aI1326
aI2798
aI1042
aI1271
aI820
aI3436
aI2450
aI2341
aI347
aI1823
aI1528
aI3249
aI1980
aI2947
aI1925
aI1071
aI517
aI138
aI2695
aI1123
aI2485
aI1743
aI2324
aI2144
aI306
aI2158
aI467
aI1051
aI3493
aI2245
aI1936
aI924
aI1998
aI2386
aI716
aI2961
aI1040
aI2978
aI3498
aI2496
aI1011
aI1555
aI3278
aI3480
aI2422
aI531
aI529
aI3120
aI2356
aI2657
aI3012
aI2585
aI847
aI3472
aI1155
aI1736
aI2173
aI1863
aI2314
aI3288
aI968
aI19
aI213
aI2424
aI2278
aI2325
aI261
aI973
aI2271
aI1203
aI855
aI2839
aI913
aI216
aI2423
aI1151
aI3226
aI567
aI677
aI358
aI3083
aI748
aI3167
aI2612
aI2295
aI558
aI2830
aI1244
aI330
aI3027
aI3425
aI2809
aI129
aI2837
aI563
aI1579
aI1194
aI3293
aI1386
aI1243
aI1431
aI2267
aI937
aI2319
aI755
aI551
aI1000
aI1512
aI1448
aI1175
aI1068
aI3279
aI632
aI2747
aI1992
aI490
aI1870
aI3099
aI1803
aI2928
aI3469
aI329
aI3515
aI3042
aI124
aI2824
aI2775
aI1181
aI2403
aa(lp6
I761
aI1873
aI894
aI2217
aI1605
aI3373
aI569
aI885
aI2439
aI2845
aI1165
aI2330
aI1296
aI1671
aI2378
aI3238
aI2113
aI987
aI1038
aI2384
aI1278
aI1301
aI3459
aI2643
aI1402
aI2135
aI730
aI1392
aI1475
aI3051
aI3248
aI231
aI2955
aI1050
aI784
aI2364
aI2194
aI2492
aI107
aI3156
aI2192
aI2741
aI1520
aI445
aI2603
aI2693
aI628
aI2104
aI1857
aI1714
aI1
aI1747
aI767
aI983
aI3327
aI1462
aI2348
aI1055
aI1942
aI2425
aI2098
aI2247
aI1047
aI3163
aI2725
aI1258
aI3180
aI1900
aI235
aI2218
aI1710
aI1511
aI2345
aI502
aI538
aI2167
aI1030
aI1268
aI1715
aI3467
aI2006
aI393
aI3341
aI1220
aI2633
aI3494
aI1686
aI356
aI1082
aI3183
aI426
aI2176
aI1043
aI3065
aI74
aI1328
aI948
aI802
aI57
aI1955
aI779
aI1750
aI1962
aI2153
aI155
aI2415
aI1482
aI547
aI2838
aI2479
aI1265
aI2377
aI957
aI1737
aI2226
aI1229
aI3337
aI3193
aI208
aI1931
aI2630
aI2119
aI73
aI712
aI1221
aI450
aI1924
aI1410
aI2456
aI1692
aI3267
aI1387
aI597
aI3514
aI81
aI2168
aI3063
aI3316
aI816
aI443
aI75
aI751
aI37
aI2770
aI2033
aI3344
aI232
aI3076
aI419
aI2393
aI80
aI1056
aI1516
aI2529
aI464
aI1970
aI1249
aI3145
aI55
aI265
aI1950
aI2794
aI428
aI1676
aI903
aI1730
aI2541
aI3087
aI1500
aI3200
aI2487
aI1646
aI3280
aI1501
aI1080
aI334
aI3089
aI442
aI2875
aI1618
aI1986
aI3219
aI3304
aI708
aI3160
aI724
aI2412
aI2446
aI3343
aI136
aI1344
aI1954
aI2459
aI1444
aI1519
aI3422
aI3421
aI2257
aI3284
aI3147
aI2140
aI2387
aI1536
aI2461
aI1935
aI1877
aI224
aI2963
aI2766
aI182
aI207
aI28
aI1001
aI1592
aI1628
aI200
aI2711
aI1310
aI2832
aI1161
aI2564
aI17
aI1399
aI2694
aI572
aI258
aI380
aI932
aI719
aI2047
aI1744
aI3452
aI956
aI2763
aI1794
aI1826
aI2275
aI2594
aI284
aI3067
aI800
aI863
aI1179
aI3313
aI40
aI1937
aI109
aI83
aI3074
aI923
aI608
aI143
aI1385
aI754
aI590
aI2405
aI3064
aI1922
aI3491
aI2179
aI1887
aI1620
aI1580
aI1809
aI2435
aI653
aI3474
aI1810
aI1967
aI2476
aI744
aI936
aI1845
aI1699
aI2592
aI1856
aI925
aI3228
aI868
aI163
aI1156
aI1982
aI1665
aI1114
aI3345
aI1729
aI2072
aI98
aI1414
aI817
aI1621
aI2115
aI469
aI1789
aI660
aI2340
aI1979
aI1564
aI3211
aI1145
aI397
aI1382
aI2017
aI1746
aI3134
aI2559
aI1073
aI475
aI2159
aI633
aI1012
aI526
aI2166
aI1973
aI2940
aI2318
aI29
aI1148
aI1305
aI1231
aI824
aI2716
aI2181
aI276
aI681
aI3339
aI756
aI3501
aI664
aI3101
aI2243
aI3254
aI2383
aI1886
aI1481
aI1995
aI996
aI1306
aI2287
aI2298
aI736
aI1858
aI462
aI2608
aI3014
aI2444
aI2681
aI2223
aI84
aI2281
aI26
aa(lp7
I348
aI699
aI588
aI2891
aI2073
aI2799
aI993
aI39
aI3237
aI683
aI2445
aI1453
aI153
aI3442
aI3107
aI3091
aI320
aI984
aI3082
aI400
aI177
aI2776
aI593
aI986
aI1252
aI1219
aI2190
aI1765
aI3205
aI3319
aI3415
aI940
aI1778
aI2704
aI1862
aI1483
aI2727
aI2077
aI3417
aI1829
aI1721
aI373
aI532
aI1183
aI1120
aI2834
aI1338
aI218
aI2599
aI2261
aI1350
aI402
aI598
aI2976
aI1772
aI2868
aI1941
aI337
aI1315
aI715
aI623
aI2292
aI310
aI2054
aI2548
aI2593
aI1581
aI88
aI1146
aI1488
aI1847
aI217
aI3217
aI1865
aI2826
aI2556
aI3276
aI869
aI3079
aI1447
aI1827
aI1975
aI2253
aI2930
aI183
aI2971
aI2001
aI498
aI2512
aI958
aI1615
aI1781
aI1393
aI850
aI3005
aI2051
aI2561
aI2193
aI476
aI309
aI1233
aI747
aI1654
aI3192
aI711
aI3430
aI452
aI2951
aI516
aI2949
aI120
aI2647
aI1126
aI1242
aI1647
aI1928
aI307
aI2521
aI92
aI3443
aI472
aI720
aI770
aI1793
aI473
aI2417
aI2000
aI2032
aI2127
aI2899
aI1451
aI3098
aI1430
aI3303
aI2533
aI661
aI2141
aI219
aI2085
aI2480
aI1762
aI2004
aI1062
aI2680
aI503
aI3330
aI3351
aI1981
aI2908
aI801
aI1742
aI2392
aI587
aI1509
aI1105
aI704
aI1575
aI125
aI3411
aI3154
aI2715
aI1882
aI1919
aI1112
aI118
aI1423
aI1366
aI30
aI1601
aI1504
aI592
aI3484
aI2221
aI1239
aI1477
aI2523
aI2819
aI1588
aI2111
aI999
aI2195
aI1704
aI240
aI3509
aI1188
aI576
aI2655
aI2433
aI1321
aI1584
aI16
aI2490
aI915
aI2164
aI1698
aI845
aI1594
aI2260
aI470
aI2448
aI2283
aI2671
aI950
aI3324
aI1212
aI2095
aI246
aI1473
aI1617
aI326
aI2022
aI2329
aI2611
aI2604
aI2574
aI411
aI1685
aI47
aI3213
aI3053
aI1889
aI204
aI3438
aI128
aI1102
aI1688
aI171
aI2720
aI1345
aI3116
aI3378
aI1374
aI673
aI2742
aI2155
aI836
aI1948
aI3297
aI2625
aI61
aI2583
aI3366
aI111
aI399
aI2333
aI1117
aI3164
aI3275
aI390
aI698
aI3085
aI2937
aI3298
aI2280
aI835
aI1376
aI2040
aI3207
aI2726
aI2266
aI1186
aI832
aI3334
aI2175
aI3157
aI1614
aI2307
aI2437
aI2601
aI1773
aI859
aI1079
aI1218
aI1867
aI3021
aI2186
aI1835
aI3153
aI703
aI2007
aI1644
aI1821
aI1582
aI146
aI256
aI1932
aI1748
aI2081
aI637
aI1066
aI318
aI997
aI2591
aI1969
aI960
aI3182
aI1489
aI2913
aI20
aI723
aI611
aI2713
aI3132
aI2272
aI2413
aI485
aI3320
aI1407
aI553
aI3028
aI1596
aI3290
aI2739
aI486
aI745
aI24
aI3199
aI631
aI2950
aI1553
aI3202
aI3266
aI1508
aI942
aI2165
aI1574
aI1784
aI3377
aI255
aI327
aI2696
aI2542
aI1558
aI289
aI2200
aI3301
aI2615
aI1597
aI1791
aI3321
aI2578
aI2595
aI833
aI2649
aI281
aI777
aI1632
aI2208
aI3142
aI1416
aI830
aa(lp8
I2806
aI2046
aI3427
aI2404
aI1118
aI1825
aI1404
aI3258
aI1441
aI2069
aI3353
aI1269
aI889
aI2372
aI1377
aI534
aI2126
aI807
aI1459
aI361
aI1282
aI386
aI2941
aI2515
aI1472
aI1645
aI3412
aI455
aI1838
aI3374
aI1522
aI2204
aI2453
aI1060
aI241
aI3061
aI1819
aI672
aI1681
aI169
aI2889
aI2503
aI1132
aI2090
aI3242
aI2362
aI525
aI2975
aI1288
aI1897
aI2607
aI1813
aI2924
aI943
aI1510
aI3240
aI1820
aI1078
aI2933
aI2654
aI3299
aI2108
aI1199
aI2815
aI2045
aI2125
aI1506
aI2299
aI2662
aI1725
aI405
aI2869
aI918
aI1484
aI1003
aI2138
aI2621
aI2432
aI1551
aI2960
aI3
aI2109
aI2944
aI1610
aI86
aI630
aI595
aI2934
aI782
aI2685
aI2344
aI2219
aI2995
aI1818
aI647
aI424
aI1933
aI341
aI773
aI2184
aI3414
aI3446
aI1142
aI2008
aI3404
aI3093
aI1184
aI2352
aI1775
aI2093
aI2457
aI1841
aI1595
aI2922
aI1006
aI2795
aI2892
aI2189
aI2401
aI1111
aI2740
aI1176
aI2870
aI1600
aI2536
aI1907
aI1507
aI2123
aI3045
aI2623
aI2380
aI1693
aI3246
aI1860
aI705
aI369
aI3461
aI272
aI291
aI2349
aI1659
aI122
aI50
aI338
aI432
aI2535
aI2346
aI105
aI2831
aI1751
aI985
aI2985
aI2293
aI3136
aI974
aI2228
aI2145
aI878
aI1888
aI1169
aI351
aI2969
aI3481
aI920
aI1983
aI2679
aI741
aI161
aI1993
aI1442
aI2545
aI54
aI646
aI2517
aI35
aI857
aI2395
aI651
aI2983
aI2634
aI2048
aI2251
aI1257
aI508
aI955
aI2499
aI2302
aI2567
aI2410
aI3413
aI3056
aI3383
aI1670
aI3272
aI897
aI2416
aI3148
aI1144
aI1964
aI1162
aI874
aI1622
aI2991
aI2376
aI3201
aI901
aI2477
aI2016
aI3194
aI482
aI1134
aI1457
aI1494
aI1987
aI3507
aI100
aI139
aI518
aI2855
aI2050
aI511
aI1107
aI3095
aI1292
aI1697
aI2825
aI1567
aI2163
aI1752
aI737
aI420
aI2509
aI2002
aI2765
aI2451
aI2367
aI205
aI809
aI2009
aI994
aI1157
aI1379
aI3497
aI2028
aI814
aI1568
aI3229
aI44
aI3370
aI2426
aI2724
aI2570
aI448
aI1640
aI2171
aI557
aI2822
aI1917
aI3177
aI1894
aI2220
aI239
aI1007
aI2691
aI1091
aI844
aI609
aI1738
aI198
aI1486
aI696
aI3032
aI147
aI2571
aI1583
aI1782
aI2506
aI1058
aI1106
aI1616
aI3231
aI2520
aI277
aI2246
aI1098
aI559
aI1286
aI67
aI2749
aI106
aI3348
aI2213
aI1339
aI3416
aI2639
aI3385
aI3216
aI3084
aI1524
aI2653
aI1846
aI2587
aI771
aI236
aI414
aI1237
aI1625
aI453
aI3331
aI149
aI2699
aI890
aI2454
aI264
aI2071
aI2544
aI9
aI702
aI2197
aI1095
aI447
aI1020
aI3384
aI1952
aI404
aI3257
aI707
aI1718
aI1266
aI1031
aI2539
aI3389
aI2952
aI1225
aI772
aI1749
aI2320
aI1792
aI1758
aI797
aI1044
aI544
aI21
aI3131
aI164
aI360
aI1525
aI1004
aI938
aI1527
aI2744
aa(lp9
I2434
aI3040
aI2820
aI822
aI3387
aI2361
aI746
aI2563
aI1680
aI343
aI2677
aI3050
aI2882
aI2557
aI1136
aI2942
aI2966
aI1371
aI56
aI2369
aI2458
aI260
aI2877
aI3102
aI1717
aI172
aI1491
aI3106
aI3118
aI2235
aI2136
aI3055
aI294
aI3243
aI1417
aI1088
aI1855
aI1094
aI3338
aI2215
aI1255
aI731
aI1866
aI140
aI3176
aI3026
aI2554
aI2759
aI454
aI290
aI2389
aI1652
aI2667
aI3468
aI2537
aI2023
aI1335
aI1028
aI1779
aI2616
aI1795
aI2294
aI1365
aI2074
aI2972
aI2812
aI2005
aI1638
aI1373
aI2780
aI881
aI1972
aI463
aI3058
aI3073
aI244
aI2637
aI3503
aI931
aI2483
aI79
aI2684
aI831
aI1261
aI3204
aI3149
aI3359
aI1812
aI3490
aI895
aI1299
aI912
aI2588
aI2986
aI2659
aI2902
aI383
aI3426
aI1828
aI969
aI3188
aI1943
aI2449
aI893
aI186
aI1804
aI1116
aI1334
aI548
aI251
aI988
aI2481
aI2183
aI185
aI2120
aI829
aI1908
aI3046
aI2064
aI342
aI3094
aI286
aI2252
aI3516
aI352
aI1364
aI3019
aI982
aI697
aI3047
aI22
aI635
aI193
aI856
aI349
aI367
aI1544
aI858
aI3381
aI194
aI2106
aI2328
aI3062
aI514
aI877
aI2124
aI3367
aI1238
aI38
aI126
aI1230
aI3352
aI909
aI1035
aI2792
aI573
aI922
aI3317
aI495
aI53
aI2107
aI1576
aI2881
aI195
aI2094
aI2471
aI523
aI451
aI564
aI929
aI2921
aI2734
aI1064
aI1260
aI594
aI1347
aI1619
aI1022
aI2675
aI1383
aI1432
aI3007
aI1313
aI561
aI2626
aI1403
aI2641
aI1135
aI3464
aI178
aI440
aI1166
aI187
aI2997
aI2250
aI785
aI2514
aI907
aI3121
aI1089
aI1449
aI1380
aI1445
aI826
aI1702
aI1398
aI3439
aI2268
aI642
aI2946
aI3335
aI2297
aI89
aI970
aI3433
aI494
aI1677
aI99
aI2617
aI1198
aI2846
aI1547
aI935
aI2638
aI1839
aI3162
aI1369
aI3357
aI1612
aI2491
aI758
aI2925
aI487
aI2522
aI2178
aI3263
aI1505
aI981
aI1807
aI2702
aI2465
aI173
aI1930
aI267
aI151
aI2872
aI159
aI586
aI2894
aI3325
aI364
aI2723
aI387
aI3129
aI2462
aI1246
aI1280
aI2255
aI2315
aI3168
aI1947
aI2807
aI2375
aI1771
aI566
aI3506
aI2317
aI899
aI1984
aI640
aI1497
aI2188
aI1971
aI546
aI2777
aI851
aI2284
aI500
aI2053
aI1217
aI389
aI1689
aI3112
aI3059
aI821
aI674
aI1573
aI377
aI2332
aI870
aI953
aI1874
aI3203
aI1966
aI684
aI3405
aI1521
aI1797
aI2663
aI3432
aI2981
aI8
aI3024
aI1707
aI1283
aI1988
aI2560
aI3225
aI1977
aI2865
aI2575
aI458
aI460
aI2080
aI3244
aI2579
aI2484
aI1700
aI1690
aI1170
aI876
aI1222
aI1884
aI2411
aI2823
aI1515
aI226
aI1811
aI577
aI3340
aI789
aI269
aI2474
aI1879
aI3165
aI652
aI1275
aI871
aI362
aI484
aI668
aI1063
aI175
aI1569
aI228
aI2903
aI363
aI2409
aI180
aI2191
aI2954
aa(lp10
I7
aI10
aI11
aI32
aI33
aI63
aI72
aI82
aI110
aI112
aI134
aI135
aI157
aI158
aI174
aI188
aI192
aI197
aI199
aI206
aI210
aI211
aI212
aI222
aI253
aI263
aI268
aI271
aI295
aI311
aI313
aI319
aI324
aI354
aI365
aI370
aI379
aI421
aI434
aI437
aI444
aI446
aI466
aI481
aI491
aI493
aI504
aI513
aI521
aI522
aI549
aI550
aI552
aI554
aI570
aI582
aI596
aI601
aI613
aI617
aI618
aI621
aI645
aI656
aI657
aI676
aI682
aI690
aI693
aI694
aI721
aI749
aI763
aI786
aI795
aI808
aI810
aI823
aI837
aI848
aI854
aI862
aI864
aI865
aI882
aI886
aI898
aI900
aI934
aI939
aI964
aI975
aI992
aI995
aI1017
aI1026
aI1036
aI1054
aI1083
aI1093
aI1096
aI1097
aI1121
aI1122
aI1124
aI1138
aI1140
aI1154
aI1190
aI1191
aI1192
aI1197
aI1206
aI1209
aI1211
aI1213
aI1228
aI1232
aI1241
aI1251
aI1254
aI1264
aI1281
aI1316
aI1322
aI1329
aI1341
aI1343
aI1352
aI1362
aI1367
aI1368
aI1372
aI1375
aI1381
aI1389
aI1408
aI1425
aI1435
aI1437
aI1439
aI1446
aI1450
aI1465
aI1466
aI1467
aI1518
aI1530
aI1546
aI1559
aI1561
aI1565
aI1570
aI1572
aI1593
aI1613
aI1627
aI1631
aI1651
aI1655
aI1664
aI1666
aI1668
aI1684
aI1694
aI1701
aI1703
aI1724
aI1733
aI1735
aI1741
aI1757
aI1769
aI1777
aI1780
aI1783
aI1790
aI1801
aI1805
aI1830
aI1831
aI1836
aI1843
aI1849
aI1853
aI1861
aI1883
aI1893
aI1901
aI1903
aI1904
aI1905
aI1911
aI1915
aI1958
aI1960
aI1963
aI1989
aI1997
aI2003
aI2010
aI2024
aI2043
aI2055
aI2058
aI2066
aI2078
aI2083
aI2088
aI2097
aI2128
aI2137
aI2143
aI2147
aI2203
aI2209
aI2227
aI2229
aI2232
aI2273
aI2277
aI2282
aI2290
aI2296
aI2306
aI2313
aI2322
aI2331
aI2334
aI2339
aI2358
aI2363
aI2365
aI2374
aI2379
aI2385
aI2406
aI2447
aI2464
aI2466
aI2467
aI2469
aI2472
aI2475
aI2502
aI2505
aI2518
aI2519
aI2526
aI2538
aI2572
aI2589
aI2605
aI2606
aI2628
aI2636
aI2661
aI2664
aI2665
aI2672
aI2673
aI2700
aI2705
aI2708
aI2710
aI2712
aI2732
aI2745
aI2750
aI2756
aI2768
aI2783
aI2784
aI2791
aI2793
aI2796
aI2801
aI2802
aI2808
aI2840
aI2841
aI2842
aI2844
aI2850
aI2861
aI2871
aI2874
aI2886
aI2905
aI2915
aI2917
aI2919
aI2931
aI2936
aI2938
aI2959
aI2967
aI2973
aI2979
aI2993
aI3015
aI3030
aI3031
aI3033
aI3044
aI3057
aI3070
aI3075
aI3090
aI3105
aI3109
aI3122
aI3125
aI3126
aI3133
aI3143
aI3151
aI3158
aI3170
aI3174
aI3185
aI3187
aI3191
aI3212
aI3224
aI3239
aI3250
aI3264
aI3277
aI3281
aI3283
aI3291
aI3294
aI3302
aI3311
aI3312
aI3329
aI3336
aI3346
aI3349
aI3355
aI3379
aI3394
aI3395
aI3399
aI3401
aI3423
aI3424
aI3435
aI3450
aI3451
aI3463
aI3466
aI3470
aI3471
aI3473
aI3482
aI3483
aI3489
aI3505
aa.