(dp0
S'all'
p1
I76
sS'yellow'
p2
I110
sS'leads'
p3
I1
sS'pictures;'
p4
I1
sS'hanging'
p5
I1
sS'go'
p6
I654
sS'follow'
p7
I100
sS'chair'
p8
I182
sS'carpet'
p9
I173
sS'whose'
p10
I2
sS'segments'
p11
I127
sS'to'
p12
I1054
sS'flowered'
p13
I53
sS'th'
p14
I2
sS'ti'
p15
I1
sS'brown'
p16
I14
sS'very'
p17
I30
sS'choice'
p18
I2
sS'util'
p19
I1
sS'four'
p20
I40
sS'wooden'
p21
I40
sS'turns'
p22
I2
sS'p'
p23
I3
sS'deadend'
p24
I4
sS'futon/bench'
p25
I1
sS'wawya'
p26
I1
sS'rack'
p27
I63
sS'teh'
p28
I7
sS'streets'
p29
I2
sS'past'
p30
I88
sS'second'
p31
I13
sS'street'
p32
I7
sS'perspective'
p33
I1
sS'pass'
p34
I14
sS'click'
p35
I1
sS'blue'
p36
I209
sS'interseciton'
p37
I1
sS'section'
p38
I16
sS'stool'
p39
I68
sS'lampshade'
p40
I1
sS'intersect'
p41
I9
sS'movement'
p42
I18
sS'interesction'
p43
I2
sS'here'
p44
I35
sS'objects'
p45
I5
sS'meet'
p46
I4
sS'directions'
p47
I1
sS'path'
p48
I308
sS'along'
p49
I107
sS'appears'
p50
I2
sS'colored'
p51
I1
sS'ahead'
p52
I7
sS'fwd'
p53
I1
sS'pics'
p54
I2
sS'90%'
p55
I1
sS'makes'
p56
I1
sS'intesection'
p57
I1
sS'regardless'
p58
I1
sS'walled/blue'
p59
I1
sS'wil'
p60
I1
sS'interesects'
p61
I1
sS'charred'
p62
I1
sS'visible'
p63
I5
sS'1st'
p64
I10
sS'yourself'
p65
I23
sS'from'
p66
I53
sS'contains'
p67
I33
sS'two'
p68
I137
sS'next'
p69
I71
sS'few'
p70
I2
sS'going'
p71
I18
sS'6'
p72
I28
sS'until'
p73
I154
sS'containg'
p74
I1
sS'sort'
p75
I2
sS'towers'
p76
I12
sS'brings'
p77
I1
sS'about'
p78
I12
sS'olive'
p79
I1
sS'walled'
p80
I10
sS'crosses'
p81
I1
sS'room'
p82
I4
sS'this'
p83
I186
sS'florr'
p84
I1
sS'dthat'
p85
I1
sS'can'
p86
I26
sS'following'
p87
I2
sS'anopther'
p88
I1
sS'p-6'
p89
I1
sS'p-7'
p90
I1
sS'grassy'
p91
I30
sS'p-3'
p92
I1
sS'pieces'
p93
I4
sS'something'
p94
I2
sS'wood-floored'
p95
I1
sS'keep'
p96
I20
sS'pink'
p97
I100
sS'end'
p98
I287
sS"'t'"
p99
I52
sS'travel'
p100
I2
sS'six'
p101
I10
sS'1'
p102
I29
sS'till'
p103
I34
sS'lamp'
p104
I130
sS'fourth'
p105
I1
sS'tile'
p106
I3
sS'more'
p107
I2
sS'movements'
p108
I2
sS'untill'
p109
I1
sS'blocks'
p110
I8
sS'may'
p111
I1
sS'after'
p112
I12
sS'spot'
p113
I9
sS'tward'
p114
I2
sS'blue-tiled'
p115
I80
sS'a'
p116
I549
sS'short'
p117
I7
sS'branches'
p118
I1
sS'third'
p119
I1
sS'coat'
p120
I41
sS'oine'
p121
I1
sS'aesal'
p122
I21
sS'so'
p123
I75
sS'block'
p124
I30
sS'enter'
p125
I2
sS"that's"
p126
I2
sS'over'
p127
I2
sS'move'
p128
I312
sS'course'
p129
I1
sS'through'
p130
I1
sS'pink-carpeted'
p131
I1
sS'still'
p132
I1
sS'its'
p133
I3
sS'before'
p134
I9
sS'carpeted'
p135
I5
sS'located'
p136
I2
sS'stone-floored'
p137
I2
sS'orange'
p138
I1
sS'covered'
p139
I1
sS'then'
p140
I93
sS'junction'
p141
I4
sS'walls'
p142
I39
sS'they'
p143
I2
sS'not'
p144
I5
sS'now'
p145
I11
sS'hall'
p146
I661
sS'easel'
p147
I216
sS'each'
p148
I4
sS'crossing'
p149
I1
sS'side'
p150
I61
sS'square'
p151
I7
sS'directly'
p152
I1
sS'meets'
p153
I4
sS'series'
p154
I1
sS'fish'
p155
I38
sS'lft'
p156
I1
sS'longetr'
p157
I1
sS'beyond'
p158
I3
sS'orient'
p159
I21
sS'out'
p160
I6
sS'rt'
p161
I11
sS'interesection'
p162
I6
sS'yellow-tiled'
p163
I51
sS'goi'
p164
I1
sS'space'
p165
I14
sS'walked'
p166
I1
sS'looking'
p167
I8
sS'contained'
p168
I1
sS'7'
p169
I23
sS'red'
p170
I144
sS'rech'
p171
I1
sS'turning'
p172
I6
sS'resume'
p173
I1
sS'hang'
p174
I1
sS'fave'
p175
I1
sS'quite'
p176
I1
sS'pcitures'
p177
I1
sS'octagon'
p178
I39
sS'put'
p179
I3
sS'aisle'
p180
I8
sS'route'
p181
I1
sS'times'
p182
I67
sS'turn'
p183
I921
sS'butterflies'
p184
I28
sS'place'
p185
I43
sS'buterfly'
p186
I1
sS'tiems'
p187
I1
sS'onto'
p188
I152
sS'think'
p189
I2
sS'first'
p190
I54
sS'wlak'
p191
I2
sS'floord'
p192
I1
sS'conatains'
p193
I1
sS'red-bricked'
p194
I1
sS'one'
p195
I327
sS'juncture'
p196
I3
sS'floors'
p197
I34
sS'alleys'
p198
I27
sS'another'
p199
I20
sS'blank'
p200
I3
sS'reached'
p201
I1
sS"doesn't"
p202
I1
sS'leading'
p203
I2
sS'top'
p204
I1
sS'tot'
p205
I2
sS'their'
p206
I1
sS'2'
p207
I29
sS'too'
p208
I1
sS'white'
p209
I2
sS'that'
p210
I77
sS'flowerd'
p211
I1
sS'immediate'
p212
I5
sS'expanse'
p213
I2
sS'pnk'
p214
I3
sS'believe'
p215
I5
sS'than'
p216
I1
sS'distance'
p217
I3
sS'conataining'
p218
I1
sS'was'
p219
I1
sS'pink-flowered'
p220
I54
sS'towars'
p221
I1
sS'grey'
p222
I61
sS'maybe'
p223
I6
sS'toward'
p224
I41
sS'and'
p225
I565
sS'laft'
p226
I1
sS'inersection'
p227
I1
sS'alley'
p228
I152
sS'winding'
p229
I10
sS'intersectino'
p230
I1
sS'have'
p231
I20
sS'hexagonal'
p232
I2
sS'intersecting'
p233
I3
sS'paths'
p234
I3
sS'efficient'
p235
I1
sS'furnitute'
p236
I1
sS'able'
p237
I5
sS'also'
p238
I3
sS'take'
p239
I261
sS'which'
p240
I12
sS'finding'
p241
I1
sS'green'
p242
I53
sS'honeycomb'
p243
I2
sS'butterfly'
p244
I23
sS'whe'
p245
I2
sS'such'
p246
I1
sS'towards'
p247
I120
sS'opposite'
p248
I6
sS'postition'
p249
I1
sS'object'
p250
I2
sS'reach'
p251
I60
sS'most'
p252
I1
sS'regular'
p253
I1
sS'interection'
p254
I2
sS'nothing'
p255
I2
sS'segment'
p256
I189
sS'branching'
p257
I1
sS'coatrack'
p258
I1
sS'flor'
p259
I2
sS'segements'
p260
I2
sS'face'
p261
I134
sS"you'll"
p262
I2
sS'hallwyas'
p263
I1
sS'painting'
p264
I5
sS'came'
p265
I3
sS'tke'
p266
I1
sS'ending'
p267
I1
sS'spaces'
p268
I11
sS'corner'
p269
I91
sS'find'
p270
I9
sS'flowers'
p271
I5
sS'3'
p272
I32
sS'should'
p273
I144
sS'foward'
p274
I23
sS'only'
p275
I31
sS'wood'
p276
I61
sS'black'
p277
I90
sS'tilll'
p278
I1
sS'tinto'
p279
I1
sS'do'
p280
I3
sS'tiles'
p281
I4
sS'hit'
p282
I8
sS'get'
p283
I41
sS'hangings'
p284
I1
sS'stop'
p285
I22
sS'tiled'
p286
I11
sS'areas'
p287
I2
sS'gray'
p288
I16
sS'bar'
p289
I1
sS'ended'
p290
I1
sS'patch'
p291
I3
sS'twice'
p292
I73
sS'though'
p293
I3
sS'contain'
p294
I8
sS'witht'
p295
I2
sS'where'
p296
I39
sS'view'
p297
I1
sS'segmentsm'
p298
I1
sS'butterlfy'
p299
I1
sS'farthest'
p300
I3
sS'w/'
p301
I5
sS'ends'
p302
I18
sS'see'
p303
I95
sS'bare'
p304
I58
sS'are'
p305
I68
sS'carpeting'
p306
I3
sS'fail'
p307
I1
sS'closer'
p308
I1
sS'intersected'
p309
I1
sS'ways'
p310
I2
sS'pictures'
p311
I41
sS'away'
p312
I35
sS'behind'
p313
I19
sS'between'
p314
I19
sS'probably'
p315
I3
sS'halfway'
p316
I1
sS'amek'
p317
I1
sS'opening'
p318
I1
sS'rock'
p319
I3
sS'however'
p320
I1
sS'no'
p321
I15
sS'key'
p322
I1
sS'wth'
p323
I1
sS'come'
p324
I18
sS'both'
p325
I4
sS'piece'
p326
I3
sS'last'
p327
I4
sS'many'
p328
I1
sS'against'
p329
I20
sS'faces'
p330
I1
sS'epink'
p331
I1
sS'passing'
p332
I50
sS'point'
p333
I3
sS'wall'
p334
I177
sS'pos'
p335
I15
sS'walk'
p336
I431
sS'pole'
p337
I2
sS'simply'
p338
I1
sS'-floored'
p339
I1
sS'finally'
p340
I1
sS"it's"
p341
I10
sS'three'
p342
I76
sS'brick'
p343
I163
sS'lovely'
p344
I1
sS'empty'
p345
I26
sS'direction'
p346
I14
sS'taek'
p347
I1
sS'thing'
p348
I1
sS'those'
p349
I2
sS'towad'
p350
I1
sS'antoher'
p351
I1
sS'look'
p352
I14
sS'solid'
p353
I1
sS'plain'
p354
I22
sS'straight'
p355
I49
sS'single'
p356
I1
sS'will'
p357
I77
sS'near'
p358
I2
sS'seven'
p359
I5
sS'almost'
p360
I3
sS'is'
p361
I311
sS'it'
p362
I87
sS'middle'
p363
I25
sS'in'
p364
I167
sS"'t's"
p365
I1
sS'id'
p366
I1
sS'if'
p367
I11
sS'containing'
p368
I54
sS'unitl'
p369
I3
sS'make'
p370
I58
sS'same'
p371
I3
sS'any'
p372
I1
sS'shorter'
p373
I6
sS'corridor'
p374
I11
sS'monarch'
p375
I1
sS'several'
p376
I1
sS'hallway'
p377
I158
sS'tunr'
p378
I1
sS'upon'
p379
I2
sS'cement'
p380
I19
sS'moving'
p381
I1
sS'not-butterflies'
p382
I1
sS'pieaces'
p383
I1
sS'octagons'
p384
I3
sS'off'
p385
I5
sS'i'
p386
I9
sS'vacant'
p387
I1
sS'well'
p388
I1
sS'concrete'
p389
I62
sS'position'
p390
I103
sS'the'
p391
I3214
sS'left'
p392
I721
sS'just'
p393
I4
sS'hexagonally'
p394
I1
sS'wiht'
p395
I1
sS'front'
p396
I40
sS'farther'
p397
I5
sS'roack'
p398
I1
sS'unti'
p399
I1
sS'followed'
p400
I1
sS'previous'
p401
I2
sS'brick-floored'
p402
I1
sS'hal'
p403
I1
sS'flooring'
p404
I52
sS'rose'
p405
I28
sS'bench'
p406
I73
sS'4'
p407
I25
sS'has'
p408
I25
sS'hat'
p409
I21
sS'around'
p410
I6
sS'couple'
p411
I1
sS'possible'
p412
I1
sS'dark'
p413
I1
sS'possibly'
p414
I1
sS'five'
p415
I18
sS'ahllway'
p416
I2
sS'immediately'
p417
I1
sS'intersection'
p418
I497
sS'pst'
p419
I1
sS'furniture'
p420
I16
sS'chairs'
p421
I1
sS'sofa'
p422
I23
sS'facing'
p423
I39
sS'continue'
p424
I5
sS'steps'
p425
I7
sS't'
p426
I1
sS'tower'
p427
I20
sS'right'
p428
I672
sS'postion'
p429
I4
sS'some'
p430
I3
sS'back'
p431
I140
sS'dead'
p432
I50
sS'standing'
p433
I4
sS'sure'
p434
I1
sS'images'
p435
I1
sS'for'
p436
I14
sS'hallways'
p437
I8
sS'normal'
p438
I1
sS'doen'
p439
I1
sS'exit'
p440
I1
sS'intersections'
p441
I6
sS'either'
p442
I18
sS'locate'
p443
I1
sS'be'
p444
I142
sS'lampl'
p445
I1
sS'continuing'
p446
I1
sS'perpendicular'
p447
I3
sS'stem'
p448
I1
sS'step'
p449
I1
sS'although'
p450
I1
sS'by'
p451
I3
sS'on'
p452
I208
sS'stone'
p453
I74
sS'foored'
p454
I1
sS'of'
p455
I442
sS'intersection;'
p456
I1
sS'stand'
p457
I2
sS'ot'
p458
I2
sS'or'
p459
I27
sS'road'
p460
I11
sS'thre'
p461
I1
sS'into'
p462
I40
sS'within'
p463
I1
sS'down'
p464
I175
sS'wooden-floored'
p465
I22
sS'your'
p466
I313
sS'area'
p467
I48
sS'there'
p468
I87
sS'long'
p469
I26
sS'start'
p470
I2
sS'way'
p471
I90
sS'forward'
p472
I723
sS'sections'
p473
I6
sS'halls'
p474
I14
sS'opens'
p475
I1
sS'head'
p476
I6
sS'ahllways'
p477
I1
sS'form'
p478
I3
sS'but'
p479
I9
sS'fishy'
p480
I1
sS'walkway'
p481
I3
sS'left;'
p482
I2
sS'with'
p483
I363
sS'he'
p484
I2
sS'halllway'
p485
I1
sS'up'
p486
I8
sS'placed'
p487
I1
sS'flooored'
p488
I1
sS'hatrack'
p489
I107
sS'grass'
p490
I22
sS'intersects'
p491
I14
sS'certain'
p492
I1
sS'am'
p493
I1
sS'an'
p494
I101
sS'as'
p495
I14
sS'at'
p496
I377
sS'conatins'
p497
I1
sS'again'
p498
I27
sS'floor'
p499
I121
sS'floored'
p500
I73
sS'when'
p501
I33
sS'til'
p502
I5
sS'roses'
p503
I1
sS'other'
p504
I11
sS'5'
p505
I29
sS'branch'
p506
I6
sS'you'
p507
I424
sS'bvlue'
p508
I1
sS'eiffel'
p509
I22
sS'stay'
p510
I2
sS'wooden-tiled'
p511
I1
sS'flower'
p512
I1
sS'these'
p513
I1
sS'sides'
p514
I6
sS'goin'
p515
I2
sS'butterflys'
p516
I5
sS'longer'
p517
I19
sS'together'
p518
I1
sS'portion'
p519
I4
sS'spce'
p520
I1
sS'far'
p521
I13
sS'whne'
p522
I1
sS'having'
p523
I2
sS'once'
p524
I228
s.