(lp0
(lp1
I195
aI448
aI377
aI357
aI421
aI44
aI727
aI473
aI186
aI161
aI623
aI116
aI48
aI211
aI229
aI245
aI549
aI135
aI312
aI562
aI180
aI17
aI540
aI324
aI469
aI297
aI717
aI631
aI730
aI375
aI504
aI326
aI244
aI593
aI428
aI632
aI489
aI725
aI92
aI63
aI255
aI157
aI50
aI704
aI293
aI54
aI254
aI700
aI605
aI494
aI596
aI366
aI689
aI465
aI237
aI163
aI319
aI311
aI252
aI250
aI29
aI270
aI574
aI692
aI451
aI557
aI715
aI151
aI603
aI714
aI676
aI221
aI664
aI322
aa(lp2
I602
aI395
aI142
aI684
aI696
aI19
aI739
aI230
aI286
aI83
aI560
aI105
aI333
aI709
aI644
aI269
aI637
aI325
aI622
aI417
aI353
aI477
aI21
aI541
aI20
aI71
aI316
aI522
aI576
aI123
aI683
aI412
aI369
aI365
aI188
aI486
aI183
aI570
aI56
aI134
aI516
aI364
aI380
aI595
aI138
aI278
aI258
aI530
aI346
aI743
aI271
aI354
aI131
aI397
aI341
aI12
aI294
aI455
aI150
aI41
aI182
aI26
aI338
aI154
aI292
aI450
aI306
aI656
aI660
aI174
aI260
aI643
aI731
aI307
aa(lp3
I158
aI233
aI711
aI2
aI639
aI337
aI702
aI314
aI713
aI449
aI289
aI126
aI196
aI542
aI283
aI97
aI301
aI441
aI384
aI447
aI719
aI606
aI559
aI416
aI287
aI661
aI392
aI490
aI124
aI356
aI55
aI440
aI650
aI514
aI436
aI464
aI104
aI94
aI11
aI187
aI327
aI193
aI170
aI472
aI652
aI149
aI363
aI323
aI332
aI505
aI510
aI592
aI330
aI695
aI273
aI411
aI612
aI484
aI137
aI485
aI181
aI141
aI404
aI279
aI253
aI136
aI597
aI499
aI701
aI82
aI476
aI658
aI693
aI117
aa(lp4
I139
aI733
aI461
aI267
aI511
aI608
aI206
aI236
aI8
aI431
aI234
aI328
aI446
aI130
aI444
aI551
aI299
aI47
aI0
aI402
aI282
aI10
aI607
aI266
aI609
aI164
aI91
aI1
aI215
aI197
aI309
aI223
aI315
aI15
aI653
aI642
aI390
aI27
aI625
aI479
aI160
aI51
aI367
aI682
aI665
aI112
aI199
aI546
aI600
aI176
aI231
aI573
aI288
aI343
aI429
aI167
aI406
aI317
aI6
aI379
aI391
aI368
aI46
aI296
aI373
aI579
aI165
aI153
aI506
aI533
aI420
aI680
aI672
aI145
aa(lp5
I184
aI98
aI205
aI678
aI594
aI640
aI740
aI543
aI248
aI120
aI550
aI49
aI259
aI566
aI129
aI389
aI498
aI659
aI648
aI677
aI744
aI84
aI264
aI88
aI277
aI591
aI243
aI470
aI213
aI413
aI396
aI382
aI64
aI305
aI537
aI109
aI128
aI25
aI400
aI207
aI155
aI89
aI735
aI572
aI483
aI536
aI587
aI463
aI381
aI585
aI526
aI33
aI378
aI93
aI371
aI45
aI355
aI303
aI30
aI468
aI251
aI321
aI185
aI201
aI198
aI474
aI208
aI555
aI310
aI500
aI626
aI22
aI737
aI376
aa(lp6
I249
aI453
aI190
aI347
aI669
aI662
aI374
aI235
aI74
aI360
aI121
aI239
aI76
aI667
aI352
aI564
aI119
aI408
aI651
aI143
aI386
aI125
aI336
aI488
aI673
aI302
aI558
aI671
aI173
aI393
aI535
aI132
aI168
aI728
aI344
aI491
aI718
aI210
aI298
aI200
aI520
aI497
aI523
aI691
aI521
aI359
aI568
aI575
aI99
aI192
aI432
aI52
aI399
aI414
aI86
aI503
aI361
aI334
aI738
aI53
aI179
aI5
aI443
aI118
aI226
aI65
aI687
aI741
aI114
aI127
aI147
aI60
aI220
aI329
aa(lp7
I156
aI584
aI528
aI478
aI534
aI159
aI78
aI31
aI348
aI407
aI475
aI437
aI387
aI471
aI106
aI80
aI238
aI613
aI7
aI424
aI670
aI487
aI710
aI75
aI663
aI668
aI601
aI107
aI629
aI544
aI563
aI598
aI295
aI611
aI454
aI90
aI705
aI442
aI241
aI545
aI268
aI457
aI111
aI589
aI140
aI685
aI532
aI507
aI101
aI113
aI85
aI590
aI350
aI638
aI320
aI96
aI372
aI362
aI698
aI219
aI398
aI285
aI194
aI599
aI228
aI37
aI415
aI281
aI9
aI209
aI480
aI430
aI73
aI272
aa(lp8
I35
aI694
aI462
aI144
aI426
aI617
aI217
aI40
aI177
aI261
aI38
aI518
aI577
aI614
aI87
aI284
aI422
aI552
aI681
aI641
aI290
aI654
aI62
aI439
aI339
aI434
aI81
aI95
aI313
aI318
aI274
aI459
aI645
aI674
aI291
aI67
aI706
aI571
aI227
aI69
aI304
aI103
aI567
aI401
aI18
aI115
aI218
aI43
aI36
aI133
aI438
aI581
aI716
aI466
aI721
aI171
aI214
aI383
aI222
aI679
aI342
aI280
aI191
aI409
aI16
aI509
aI202
aI265
aI620
aI225
aI110
aI100
aI529
aI300
aa(lp9
I515
aI712
aI630
aI508
aI247
aI308
aI580
aI742
aI240
aI458
aI517
aI616
aI66
aI224
aI586
aI427
aI582
aI467
aI688
aI548
aI633
aI708
aI263
aI410
aI388
aI519
aI460
aI556
aI61
aI175
aI636
aI276
aI723
aI419
aI493
aI189
aI456
aI72
aI734
aI148
aI34
aI425
aI610
aI666
aI256
aI169
aI525
aI621
aI604
aI524
aI565
aI496
aI635
aI394
aI539
aI624
aI68
aI726
aI58
aI172
aI686
aI720
aI349
aI578
aI707
aI628
aI554
aI70
aI690
aI39
aI531
aI345
aI569
aI445
aa(lp10
I3
aI4
aI13
aI14
aI23
aI24
aI28
aI32
aI42
aI57
aI59
aI77
aI79
aI102
aI108
aI122
aI146
aI152
aI162
aI166
aI178
aI203
aI204
aI212
aI216
aI232
aI242
aI246
aI257
aI262
aI275
aI331
aI335
aI340
aI351
aI358
aI370
aI385
aI403
aI405
aI418
aI423
aI433
aI435
aI452
aI481
aI482
aI492
aI495
aI501
aI502
aI512
aI513
aI527
aI538
aI547
aI553
aI561
aI583
aI588
aI615
aI618
aI619
aI627
aI634
aI646
aI647
aI649
aI655
aI657
aI675
aI697
aI699
aI703
aI722
aI724
aI729
aI732
aI736
aa.