(lp0
(lp1
I1191
aI569
aI44
aI1358
aI1038
aI627
aI1294
aI588
aI1066
aI1131
aI837
aI632
aI537
aI38
aI1168
aI823
aI1389
aI87
aI1100
aI1287
aI156
aI992
aI433
aI587
aI54
aI1516
aI20
aI1416
aI964
aI81
aI1211
aI852
aI218
aI943
aI1277
aI890
aI1043
aI758
aI535
aI718
aI261
aI427
aI910
aI226
aI1291
aI681
aI83
aI99
aI1469
aI40
aI169
aI1078
aI621
aI1085
aI163
aI549
aI517
aI260
aI347
aI1147
aI555
aI57
aI899
aI1280
aI329
aI509
aI1017
aI691
aI17
aI462
aI39
aI202
aI601
aI1039
aI748
aI777
aI712
aI1541
aI1430
aI1410
aI937
aI522
aI1317
aI126
aI1140
aI521
aI732
aI330
aI720
aI1129
aI138
aI1266
aI1117
aI845
aI883
aI306
aI1112
aI262
aI1050
aI551
aI1535
aI16
aI1386
aI1071
aI1445
aI898
aI1010
aI955
aI640
aI201
aI1237
aI455
aI891
aI1463
aI240
aI32
aI177
aI1281
aI646
aI573
aI429
aI1247
aI1123
aI1292
aI660
aI160
aI894
aI949
aI802
aI1119
aI1238
aI1097
aI478
aI479
aI472
aI481
aI127
aI461
aI1504
aI367
aI1310
aI82
aI1509
aI1507
aI1126
aI798
aI58
aI1452
aI710
aI1236
aI1175
aI1059
aI842
aI152
aa(lp2
I7
aI736
aI1178
aI394
aI389
aI129
aI1188
aI1364
aI5
aI486
aI1134
aI379
aI1235
aI1231
aI354
aI735
aI694
aI3
aI844
aI431
aI414
aI692
aI1405
aI242
aI1125
aI1432
aI349
aI966
aI1061
aI818
aI1019
aI1300
aI165
aI1522
aI60
aI1177
aI857
aI1257
aI264
aI238
aI100
aI1090
aI1360
aI739
aI512
aI783
aI214
aI172
aI321
aI888
aI70
aI1068
aI110
aI1087
aI297
aI533
aI499
aI340
aI1503
aI485
aI314
aI1130
aI1322
aI31
aI1338
aI84
aI359
aI996
aI1075
aI719
aI451
aI1263
aI132
aI48
aI572
aI1137
aI1268
aI734
aI13
aI1227
aI342
aI294
aI1176
aI1154
aI1465
aI1209
aI505
aI1388
aI247
aI651
aI1139
aI1270
aI502
aI353
aI170
aI678
aI663
aI216
aI41
aI689
aI149
aI1392
aI246
aI968
aI1316
aI1161
aI786
aI295
aI878
aI92
aI676
aI270
aI570
aI419
aI528
aI1200
aI1321
aI490
aI812
aI1026
aI1403
aI814
aI186
aI435
aI310
aI114
aI173
aI1534
aI482
aI1122
aI251
aI1239
aI715
aI619
aI862
aI244
aI372
aI299
aI348
aI816
aI167
aI1501
aI1029
aI693
aI446
aI973
aI1536
aI365
aI1018
aI945
aI876
aI915
aI1374
aI614
aa(lp3
I107
aI960
aI1089
aI1448
aI122
aI280
aI529
aI641
aI8
aI318
aI1007
aI85
aI1028
aI1170
aI741
aI673
aI835
aI552
aI1285
aI1113
aI1022
aI51
aI1384
aI52
aI364
aI1313
aI515
aI412
aI193
aI713
aI657
aI1273
aI1493
aI184
aI404
aI1447
aI1457
aI1420
aI105
aI434
aI917
aI1472
aI1150
aI63
aI1267
aI568
aI350
aI380
aI571
aI1013
aI746
aI420
aI624
aI1394
aI932
aI1015
aI1156
aI863
aI1111
aI1441
aI825
aI1204
aI1290
aI1371
aI29
aI986
aI375
aI1434
aI921
aI467
aI752
aI796
aI556
aI55
aI90
aI520
aI1055
aI696
aI212
aI154
aI750
aI1407
aI1483
aI47
aI101
aI913
aI1436
aI484
aI94
aI1269
aI1462
aI1226
aI781
aI257
aI1288
aI103
aI1428
aI942
aI854
aI939
aI1213
aI23
aI161
aI584
aI716
aI445
aI662
aI194
aI409
aI1347
aI1354
aI289
aI18
aI1005
aI210
aI557
aI357
aI233
aI767
aI422
aI1157
aI471
aI885
aI46
aI1351
aI392
aI1413
aI589
aI366
aI1163
aI144
aI1222
aI634
aI269
aI64
aI406
aI150
aI1419
aI809
aI1251
aI618
aI360
aI1415
aI1244
aI301
aI905
aI179
aI1072
aI135
aI125
aI1179
aI22
aI1110
aI396
aa(lp4
I1485
aI629
aI1442
aI86
aI157
aI388
aI207
aI118
aI1526
aI991
aI775
aI1527
aI1069
aI217
aI111
aI684
aI117
aI166
aI1427
aI1088
aI1319
aI283
aI1363
aI253
aI848
aI916
aI139
aI815
aI836
aI33
aI119
aI1451
aI454
aI1369
aI1261
aI281
aI579
aI697
aI477
aI1473
aI66
aI188
aI341
aI327
aI822
aI185
aI1185
aI1289
aI96
aI514
aI1390
aI1446
aI895
aI733
aI480
aI155
aI664
aI864
aI870
aI751
aI56
aI839
aI861
aI1049
aI1478
aI782
aI1023
aI1234
aI293
aI453
aI487
aI819
aI1395
aI920
aI536
aI1171
aI76
aI232
aI291
aI1361
aI1164
aI643
aI36
aI947
aI1477
aI271
aI1443
aI1210
aI764
aI1423
aI817
aI952
aI923
aI595
aI1439
aI1348
aI50
aI98
aI695
aI1336
aI397
aI525
aI550
aI904
aI450
aI1198
aI1215
aI1165
aI1011
aI43
aI912
aI1030
aI680
aI296
aI1422
aI1162
aI1495
aI516
aI717
aI1025
aI1243
aI872
aI1054
aI309
aI604
aI497
aI206
aI547
aI1406
aI548
aI1218
aI1437
aI830
aI287
aI131
aI1265
aI1353
aI1344
aI1201
aI493
aI1421
aI1008
aI352
aI820
aI323
aI1490
aI731
aI1467
aI889
aI390
aI1250
aI1021
aI728
aI879
aa(lp5
I498
aI279
aI425
aI755
aI706
aI88
aI926
aI970
aI1307
aI208
aI804
aI1058
aI971
aI1460
aI976
aI779
aI1418
aI1513
aI1032
aI1275
aI426
aI778
aI448
aI703
aI239
aI581
aI1391
aI1104
aI1540
aI1524
aI333
aI652
aI821
aI585
aI599
aI1024
aI1197
aI1138
aI760
aI1438
aI506
aI275
aI1044
aI613
aI410
aI1094
aI1067
aI630
aI1057
aI345
aI112
aI241
aI726
aI953
aI1228
aI428
aI791
aI285
aI15
aI235
aI1080
aI339
aI686
aI983
aI304
aI1306
aI399
aI1063
aI1229
aI559
aI881
aI623
aI1155
aI75
aI562
aI1091
aI766
aI1096
aI785
aI1409
aI554
aI705
aI753
aI866
aI948
aI136
aI1225
aI1496
aI853
aI324
aI1340
aI1041
aI468
aI459
aI927
aI615
aI519
aI113
aI153
aI1146
aI292
aI1330
aI198
aI988
aI362
aI237
aI884
aI626
aI1373
aI1042
aI1145
aI274
aI385
aI1508
aI1511
aI784
aI500
aI633
aI1105
aI178
aI182
aI542
aI25
aI776
aI526
aI944
aI1153
aI603
aI582
aI1399
aI1521
aI580
aI1494
aI200
aI391
aI934
aI49
aI808
aI1376
aI967
aI1382
aI1037
aI1082
aI1182
aI130
aI933
aI255
aI430
aI1216
aI1189
aI1034
aI981
aI990
aI873
aa(lp6
I441
aI998
aI219
aI723
aI1335
aI1027
aI1433
aI855
aI416
aI1355
aI1232
aI1118
aI612
aI940
aI236
aI1350
aI458
aI30
aI19
aI637
aI1328
aI650
aI578
aI159
aI4
aI209
aI124
aI243
aI1450
aI115
aI765
aI666
aI278
aI9
aI609
aI598
aI793
aI460
aI1070
aI205
aI1314
aI508
aI1397
aI45
aI900
aI276
aI393
aI1417
aI1092
aI724
aI1120
aI962
aI980
aI1184
aI133
aI1221
aI688
aI655
aI1398
aI252
aI1233
aI123
aI27
aI1053
aI213
aI1142
aI1254
aI622
aI273
aI316
aI307
aI1076
aI740
aI494
aI1224
aI1542
aI524
aI191
aI593
aI300
aI302
aI925
aI1356
aI1012
aI807
aI565
aI1102
aI594
aI77
aI290
aI80
aI875
aI709
aI369
aI1040
aI146
aI376
aI1412
aI312
aI1454
aI1127
aI1272
aI234
aI995
aI1295
aI1458
aI1486
aI610
aI363
aI95
aI72
aI806
aI1249
aI89
aI561
aI203
aI668
aI1255
aI1357
aI387
aI1533
aI527
aI880
aI147
aI849
aI1318
aI230
aI698
aI1393
aI1329
aI788
aI729
aI685
aI474
aI197
aI564
aI1248
aI1529
aI97
aI10
aI1429
aI829
aI1334
aI661
aI774
aI1518
aI1169
aI941
aI896
aI6
aI1368
aI315
aI897
aI449
aa(lp7
I851
aI749
aI871
aI228
aI1009
aI313
aI1435
aI511
aI877
aI745
aI759
aI384
aI1520
aI168
aI1514
aI1214
aI415
aI223
aI963
aI417
aI919
aI1375
aI540
aI956
aI957
aI378
aI984
aI1297
aI531
aI1308
aI120
aI1208
aI1302
aI1324
aI14
aI608
aI1298
aI869
aI53
aI1523
aI463
aI475
aI1245
aI805
aI679
aI997
aI754
aI541
aI1283
aI1252
aI841
aI1378
aI227
aI438
aI972
aI1135
aI532
aI1051
aI638
aI951
aI1173
aI1081
aI1331
aI507
aI801
aI1311
aI930
aI116
aI727
aI1512
aI860
aI405
aI1101
aI0
aI674
aI308
aI1475
aI813
aI488
aI108
aI381
aI787
aI1481
aI1517
aI918
aI721
aI708
aI183
aI1339
aI1116
aI288
aI859
aI513
aI607
aI769
aI268
aI320
aI654
aI1206
aI1379
aI586
aI1337
aI828
aI145
aI1219
aI265
aI1064
aI800
aI959
aI865
aI1425
aI470
aI221
aI1537
aI1528
aI67
aI1124
aI914
aI1242
aI1047
aI832
aI267
aI351
aI648
aI574
aI1077
aI606
aI476
aI893
aI704
aI439
aI1366
aI833
aI950
aI504
aI1083
aI1278
aI840
aI402
aI28
aI1492
aI611
aI1056
aI222
aI1035
aI403
aI181
aI1020
aI1459
aI1086
aI69
aI1343
aI418
aI1151
aa(lp8
I1001
aI628
aI625
aI199
aI826
aI346
aI867
aI444
aI1461
aI647
aI738
aI1186
aI1431
aI1480
aI102
aI371
aI1532
aI164
aI465
aI886
aI824
aI892
aI1114
aI1538
aI935
aI495
aI1304
aI797
aI286
aI258
aI358
aI987
aI11
aI1220
aI106
aI645
aI545
aI1497
aI1174
aI189
aI714
aI456
aI938
aI1341
aI483
aI332
aI1048
aI256
aI220
aI386
aI1286
aI424
aI1095
aI1045
aI248
aI24
aI671
aI336
aI909
aI982
aI1372
aI1241
aI1325
aI530
aI605
aI383
aI176
aI763
aI616
aI356
aI1500
aI1284
aI592
aI503
aI590
aI398
aI141
aI742
aI1262
aI975
aI272
aI466
aI773
aI473
aI447
aI148
aI577
aI1195
aI491
aI1491
aI617
aI421
aI1383
aI231
aI128
aI922
aI683
aI282
aI171
aI361
aI26
aI1160
aI1426
aI907
aI109
aI334
aI469
aI211
aI1199
aI518
aI12
aI1181
aI834
aI838
aI1207
aI1079
aI672
aI1296
aI563
aI61
aI1402
aI1293
aI35
aI757
aI1323
aI1167
aI93
aI1108
aI344
aI994
aI597
aI266
aI71
aI174
aI1539
aI1158
aI544
aI1525
aI1172
aI1400
aI725
aI1006
aI1073
aI91
aI642
aI874
aI121
aI1099
aI1002
aI311
aI730
aI1107
aI670
aI1084
aa(lp9
I1380
aI62
aI1258
aI1320
aI965
aI1196
aI928
aI158
aI811
aI974
aI317
aI78
aI337
aI104
aI602
aI1470
aI644
aI180
aI1031
aI1052
aI407
aI196
aI298
aI162
aI700
aI374
aI1046
aI68
aI1260
aI743
aI667
aI355
aI946
aI1194
aI1487
aI795
aI284
aI204
aI1381
aI576
aI1121
aI192
aI711
aI1349
aI768
aI249
aI21
aI1506
aI534
aI936
aI322
aI977
aI423
aI496
aI1370
aI338
aI1312
aI277
aI687
aI1414
aI1468
aI843
aI1326
aI263
aI1346
aI656
aI1271
aI1004
aI326
aI1387
aI1193
aI978
aI792
aI1505
aI229
aI1502
aI1466
aI566
aI1345
aI1103
aI993
aI1202
aI1098
aI744
aI546
aI831
aI1367
aI1136
aI140
aI677
aI187
aI868
aI1036
aI1299
aI254
aI325
aI882
aI1240
aI1205
aI34
aI699
aI658
aI335
aI73
aI343
aI1396
aI1453
aI464
aI979
aI780
aI1455
aI1464
aI1230
aI659
aI1141
aI649
aI42
aI1499
aI575
aI1115
aI443
aI1217
aI1482
aI1424
aI789
aI911
aI1166
aI985
aI1352
aI558
aI215
aI190
aI1016
aI850
aI1327
aI1519
aI761
aI653
aI134
aI328
aI1530
aI799
aI79
aI762
aI1003
aI259
aI1279
aI436
aI1180
aI631
aI1192
aI1014
aI583
aI1259
aa(lp10
I1
aI2
aI37
aI59
aI65
aI74
aI137
aI142
aI143
aI151
aI175
aI195
aI224
aI225
aI245
aI250
aI303
aI305
aI319
aI331
aI368
aI370
aI373
aI377
aI382
aI395
aI400
aI401
aI408
aI411
aI413
aI432
aI437
aI440
aI442
aI452
aI457
aI489
aI492
aI501
aI510
aI523
aI538
aI539
aI543
aI553
aI560
aI567
aI591
aI596
aI600
aI620
aI635
aI636
aI639
aI665
aI669
aI675
aI682
aI690
aI701
aI702
aI707
aI722
aI737
aI747
aI756
aI770
aI771
aI772
aI790
aI794
aI803
aI810
aI827
aI846
aI847
aI856
aI858
aI887
aI901
aI902
aI903
aI906
aI908
aI924
aI929
aI931
aI954
aI958
aI961
aI969
aI989
aI999
aI1000
aI1033
aI1060
aI1062
aI1065
aI1074
aI1093
aI1106
aI1109
aI1128
aI1132
aI1133
aI1143
aI1144
aI1148
aI1149
aI1152
aI1159
aI1183
aI1187
aI1190
aI1203
aI1212
aI1223
aI1246
aI1253
aI1256
aI1264
aI1274
aI1276
aI1282
aI1301
aI1303
aI1305
aI1309
aI1315
aI1332
aI1333
aI1342
aI1359
aI1362
aI1365
aI1377
aI1385
aI1401
aI1404
aI1408
aI1411
aI1440
aI1444
aI1449
aI1456
aI1471
aI1474
aI1476
aI1479
aI1484
aI1488
aI1489
aI1498
aI1510
aI1515
aI1531
aI1543
aa.