(lp0
(lp1
I2908
aI170
aI3024
aI1274
aI1915
aI2875
aI456
aI1646
aI2647
aI1621
aI208
aI1956
aI675
aI1559
aI1340
aI1658
aI2447
aI2471
aI249
aI1768
aI1739
aI383
aI887
aI3054
aI347
aI1516
aI1380
aI3082
aI3039
aI2398
aI3093
aI1133
aI1066
aI1178
aI412
aI2208
aI943
aI2755
aI1747
aI2198
aI2207
aI2167
aI2645
aI527
aI804
aI2478
aI300
aI546
aI616
aI2910
aI2636
aI972
aI996
aI2866
aI2618
aI3051
aI1674
aI16
aI1996
aI128
aI1467
aI983
aI1587
aI2402
aI615
aI1505
aI2715
aI2300
aI646
aI2411
aI466
aI1050
aI378
aI2102
aI2452
aI810
aI1792
aI1635
aI1576
aI877
aI414
aI1468
aI1227
aI1319
aI590
aI1426
aI356
aI498
aI1879
aI2297
aI579
aI1463
aI294
aI139
aI1377
aI1615
aI894
aI1173
aI2560
aI3089
aI1833
aI1095
aI54
aI1174
aI149
aI2101
aI1311
aI2046
aI2377
aI319
aI1637
aI1494
aI2458
aI1040
aI48
aI2524
aI1715
aI1078
aI1072
aI2609
aI1854
aI2406
aI493
aI2644
aI1401
aI1842
aI1282
aI1430
aI1748
aI2745
aI1213
aI405
aI1329
aI2036
aI14
aI308
aI1520
aI2669
aI1014
aI2187
aI1271
aI2913
aI599
aI1057
aI1298
aI487
aI1058
aI1948
aI2891
aI1782
aI865
aI2409
aI759
aI2158
aI2047
aI365
aI826
aI2015
aI1162
aI1059
aI1222
aI1289
aI2980
aI1990
aI215
aI293
aI195
aI1519
aI1418
aI1873
aI2630
aI934
aI2237
aI689
aI2687
aI2997
aI2932
aI99
aI1622
aI2925
aI1017
aI1428
aI1793
aI2407
aI1250
aI1749
aI3081
aI1764
aI1760
aI2702
aI639
aI1917
aI320
aI793
aI1989
aI1888
aI337
aI2064
aI1023
aI22
aI1069
aI125
aI2519
aI928
aI486
aI1602
aI482
aI2785
aI197
aI647
aI2664
aI2923
aI1783
aI3032
aI2076
aI53
aI1876
aI2753
aI830
aI1761
aI2312
aI2393
aI634
aI2587
aI1778
aI2441
aI3047
aI1332
aI642
aI3018
aI3025
aI1281
aI2658
aI2737
aI680
aI1945
aI557
aI2461
aI1664
aI2900
aI2506
aI1324
aI703
aI284
aI2977
aI106
aI1640
aI2161
aI580
aI2329
aI2480
aI1181
aI2534
aI2306
aI1172
aI2019
aI2438
aI2985
aI1445
aI13
aI2199
aI2686
aI1006
aI1005
aI2128
aI1598
aI2841
aI474
aI2121
aI1202
aI2479
aI268
aI748
aI446
aI2933
aI271
aI2843
aI221
aI460
aI2903
aI982
aI1384
aI1020
aI3072
aI2380
aI1885
aI359
aI701
aI1144
aI2181
aI45
aI172
aI1790
aI1634
aI1530
aI861
aI661
aI173
aI907
aI2509
aI2746
aI1207
aI1248
aI1488
aI698
aI3068
aI664
aI1995
aI505
aa(lp2
I2416
aI1403
aI2341
aI462
aI2712
aI2113
aI1424
aI2010
aI477
aI2601
aI699
aI1164
aI386
aI976
aI2079
aI472
aI2569
aI731
aI2189
aI2689
aI56
aI1327
aI2295
aI2995
aI418
aI2773
aI1270
aI2184
aI2240
aI2682
aI1420
aI958
aI2082
aI654
aI1500
aI1368
aI2847
aI2546
aI1031
aI942
aI2404
aI2490
aI1344
aI624
aI1182
aI2274
aI1675
aI1581
aI226
aI478
aI686
aI2241
aI2730
aI998
aI724
aI734
aI189
aI362
aI1868
aI443
aI2868
aI1667
aI1755
aI2666
aI218
aI135
aI1286
aI2331
aI118
aI2699
aI116
aI2946
aI302
aI669
aI659
aI2246
aI1493
aI705
aI2604
aI1920
aI2090
aI481
aI2467
aI1262
aI1036
aI2610
aI1260
aI583
aI2938
aI896
aI845
aI2364
aI960
aI1089
aI2646
aI1351
aI842
aI439
aI311
aI2640
aI1224
aI1929
aI1517
aI2818
aI2358
aI1774
aI2955
aI2574
aI2738
aI1858
aI468
aI2052
aI2257
aI2391
aI2270
aI2427
aI2893
aI670
aI2548
aI2485
aI1404
aI1655
aI1082
aI855
aI1618
aI2656
aI2431
aI1352
aI345
aI59
aI523
aI1537
aI194
aI1869
aI21
aI871
aI2518
aI742
aI161
aI532
aI131
aI2379
aI1863
aI1839
aI1146
aI2597
aI1367
aI2413
aI2279
aI1070
aI8
aI1339
aI559
aI1152
aI1331
aI741
aI211
aI2978
aI587
aI2825
aI49
aI716
aI452
aI2234
aI1447
aI962
aI806
aI2454
aI2068
aI1822
aI2212
aI2508
aI2122
aI421
aI2261
aI955
aI335
aI700
aI1972
aI1064
aI1759
aI166
aI2781
aI2345
aI96
aI821
aI1303
aI1641
aI3011
aI1396
aI219
aI2259
aI840
aI84
aI1451
aI2321
aI848
aI252
aI2543
aI2816
aI1578
aI1209
aI3059
aI3000
aI1821
aI2863
aI1656
aI3019
aI1094
aI2563
aI1647
aI926
aI1196
aI2324
aI1965
aI2608
aI2133
aI2346
aI2116
aI1859
aI2805
aI1381
aI1504
aI1223
aI720
aI2338
aI1499
aI692
aI743
aI2663
aI3001
aI898
aI528
aI1166
aI309
aI2109
aI1295
aI1096
aI2251
aI2201
aI2532
aI2132
aI2325
aI239
aI2714
aI1062
aI2787
aI2072
aI61
aI2628
aI2027
aI1187
aI2265
aI956
aI2522
aI130
aI1944
aI2828
aI891
aI2799
aI2736
aI2884
aI2495
aI1808
aI2421
aI2590
aI521
aI1591
aI1841
aI2213
aI185
aI2791
aI2605
aI1864
aI1098
aI1766
aI250
aI1912
aI2146
aI1333
aI1476
aI1541
aI151
aI1366
aI10
aI1328
aI1975
aI2424
aI1290
aI2557
aI164
aI837
aI1410
aI1514
aI1731
aI314
aI351
aI1234
aI2385
aI153
aI1629
aI1691
aI1487
aI1960
aI1171
aI2652
aI1631
aI2243
aI2602
aa(lp3
I499
aI2878
aI1210
aI1013
aI2854
aI1962
aI3031
aI1611
aI2982
aI1106
aI2291
aI281
aI1109
aI2354
aI889
aI1354
aI318
aI1097
aI564
aI2066
aI2292
aI1310
aI1087
aI1299
aI2887
aI2564
aI3030
aI246
aI1317
aI2136
aI1589
aI600
aI1722
aI183
aI691
aI2584
aI852
aI900
aI192
aI870
aI417
aI967
aI1997
aI2196
aI3026
aI2267
aI374
aI1053
aI78
aI1694
aI2468
aI1378
aI1126
aI86
aI1535
aI2097
aI2142
aI2819
aI1432
aI995
aI2313
aI1021
aI1562
aI2512
aI234
aI2675
aI2428
aI39
aI2674
aI1699
aI101
aI1892
aI274
aI2668
aI2120
aI66
aI2811
aI285
aI953
aI2550
aI1651
aI1909
aI1619
aI921
aI949
aI1824
aI2423
aI88
aI2971
aI1889
aI1626
aI1458
aI2474
aI2250
aI2009
aI1928
aI2200
aI951
aI604
aI2381
aI1194
aI1203
aI3083
aI1923
aI1409
aI1265
aI406
aI577
aI254
aI1208
aI1470
aI2004
aI1508
aI94
aI611
aI6
aI2582
aI2706
aI1980
aI2041
aI1843
aI41
aI2451
aI1465
aI1302
aI411
aI851
aI1930
aI1491
aI1677
aI323
aI884
aI1138
aI1610
aI394
aI2020
aI2493
aI694
aI807
aI1450
aI2611
aI2880
aI457
aI3008
aI3073
aI1988
aI2820
aI1168
aI844
aI1296
aI1799
aI2901
aI2710
aI3040
aI1452
aI1840
aI1652
aI2014
aI1372
aI190
aI2871
aI1756
aI2156
aI1744
aI1084
aI1088
aI111
aI1952
aI695
aI1526
aI1939
aI910
aI2954
aI2105
aI124
aI3087
aI754
aI2095
aI541
aI809
aI162
aI520
aI2704
aI2556
aI193
aI878
aI1139
aI119
aI202
aI1039
aI1689
aI1777
aI2758
aI2915
aI631
aI1913
aI3057
aI270
aI3079
aI913
aI491
aI1186
aI312
aI2111
aI1971
aI660
aI1918
aI1460
aI2170
aI2623
aI2309
aI3022
aI1896
aI2725
aI2619
aI1633
aI834
aI1215
aI1055
aI1446
aI2815
aI1110
aI1300
aI3043
aI1434
aI2503
aI2397
aI306
aI1313
aI2808
aI484
aI1586
aI1957
aI2586
aI1326
aI568
aI3062
aI757
aI1048
aI1837
aI136
aI2633
aI506
aI869
aI578
aI593
aI2762
aI2477
aI2498
aI2952
aI1829
aI981
aI2165
aI783
aI2154
aI2988
aI2319
aI368
aI2631
aI2741
aI1459
aI2210
aI2517
aI948
aI1205
aI448
aI1599
aI430
aI656
aI886
aI2848
aI2869
aI143
aI2961
aI2800
aI1475
aI500
aI1461
aI1775
aI2827
aI2059
aI2034
aI38
aI1375
aI1539
aI2293
aI1134
aI652
aI2759
aI210
aI1849
aI1127
aI923
aI1702
aI434
aI729
aI1638
aI288
aI2124
aI3069
aI33
aI811
aI895
aI2853
aI2025
aI1255
aI1259
aI2536
aI1455
aa(lp4
I1034
aI1804
aI3085
aI946
aI2700
aI220
aI2023
aI1890
aI2258
aI1201
aI2553
aI364
aI272
aI62
aI127
aI2782
aI2350
aI1645
aI1411
aI2317
aI2029
aI1973
aI2612
aI547
aI601
aI2960
aI548
aI23
aI2867
aI2327
aI26
aI2924
aI819
aI2832
aI1414
aI2983
aI1679
aI2941
aI229
aI607
aI2861
aI113
aI1938
aI991
aI1183
aI537
aI2378
aI847
aI2394
aI789
aI236
aI655
aI1536
aI310
aI2935
aI565
aI1636
aI1827
aI2392
aI591
aI178
aI2001
aI2272
aI330
aI3029
aI1342
aI1356
aI3077
aI1608
aI1161
aI2301
aI1596
aI1547
aI2367
aI2269
aI277
aI50
aI1306
aI585
aI1925
aI1579
aI1856
aI29
aI1244
aI903
aI1870
aI1954
aI1125
aI2144
aI820
aI2463
aI2902
aI1880
aI1937
aI1235
aI684
aI1700
aI2593
aI1805
aI2951
aI1742
aI614
aI1550
aI1927
aI328
aI3074
aI802
aI1417
aI1158
aI1779
aI150
aI540
aI911
aI404
aI2110
aI1343
aI289
aI2359
aI1216
aI1334
aI2220
aI622
aI2007
aI1263
aI2045
aI2786
aI3065
aI2727
aI355
aI625
aI228
aI1362
aI1513
aI2157
aI212
aI2289
aI2803
aI2766
aI1258
aI2769
aI3091
aI1264
aI58
aI2864
aI1984
aI2743
aI480
aI30
aI1736
aI1998
aI1568
aI2039
aI1644
aI832
aI80
aI2002
aI184
aI1122
aI957
aI464
aI1976
aI1569
aI475
aI2323
aI1964
aI348
aI2049
aI57
aI2717
aI1814
aI1140
aI85
aI2152
aI3027
aI1705
aI1982
aI266
aI1601
aI2055
aI2499
aI1288
aI361
aI413
aI2641
aI1719
aI1018
aI2384
aI1025
aI1415
aI1540
aI1950
aI1462
aI2175
aI1866
aI2829
aI735
aI1242
aI429
aI2048
aI867
aI816
aI303
aI2362
aI1798
aI2032
aI1015
aI709
aI1780
aI400
aI2945
aI556
aI1376
aI1129
aI2801
aI52
aI812
aI1590
aI2209
aI2740
aI2159
aI2388
aI102
aI2062
aI455
aI2558
aI740
aI1595
aI538
aI326
aI1624
aI1390
aI1118
aI2166
aI2150
aI1953
aI1921
aI2414
aI2598
aI676
aI1959
aI3066
aI862
aI2795
aI343
aI1359
aI1305
aI2760
aI2481
aI2929
aI755
aI2169
aI2232
aI717
aI2271
aI483
aI2845
aI916
aI1811
aI2100
aI1438
aI2372
aI678
aI332
aI2621
aI238
aI1831
aI28
aI672
aI1967
aI2788
aI2440
aI2429
aI1787
aI3064
aI264
aI1788
aI643
aI736
aI2905
aI524
aI2533
aI1716
aI1692
aI2830
aI1251
aI1099
aI633
aI159
aI2395
aI1510
aI856
aI2732
aI726
aI3020
aI1229
aI963
aI388
aI248
aI1065
aI1878
aI35
aI1556
aI1819
aI974
aI2855
aI2040
aI1316
aI1000
aI2260
aa(lp5
I2661
aI761
aI3042
aI1905
aI1063
aI74
aI849
aI1639
aI295
aI1680
aI2529
aI1204
aI2244
aI1525
aI441
aI2833
aI2093
aI2501
aI2691
aI2353
aI0
aI2145
aI2991
aI2551
aI81
aI2096
aI888
aI745
aI315
aI2262
aI287
aI1803
aI733
aI932
aI1657
aI1195
aI1266
aI863
aI142
aI917
aI2229
aI688
aI920
aI1907
aI55
aI1285
aI586
aI42
aI988
aI1192
aI1994
aI940
aI1594
aI2797
aI2813
aI2298
aI2332
aI1456
aI1549
aI2654
aI1392
aI2653
aI2056
aI933
aI2318
aI3033
aI1323
aI1724
aI152
aI1853
aI1267
aI1816
aI785
aI1492
aI2711
aI401
aI612
aI1991
aI979
aI1570
aI2098
aI1566
aI765
aI2989
aI535
aI727
aI618
aI2178
aI2561
aI2236
aI273
aI1963
aI813
aI753
aI2625
aI2676
aI2022
aI2690
aI3088
aI115
aI2160
aI1257
aI2194
aI2607
aI275
aI2916
aI2705
aI331
aI975
aI854
aI3034
aI492
aI2446
aI514
aI1865
aI2339
aI2419
aI1527
aI1563
aI1277
aI2307
aI95
aI350
aI2920
aI2856
aI2739
aI945
aI3070
aI2242
aI1175
aI1387
aI1239
aI2176
aI490
aI1472
aI3028
aI1154
aI1495
aI1620
aI1056
aI176
aI1835
aI2823
aI2698
aI859
aI679
aI1617
aI397
aI2839
aI426
aI2188
aI2058
aI2993
aI784
aI2703
aI2814
aI1349
aI2206
aI1609
aI1524
aI2770
aI638
aI2596
aI1533
aI2226
aI927
aI2728
aI1931
aI632
aI573
aI1037
aI1357
aI2678
aI508
aI2351
aI732
aI2231
aI2054
aI2455
aI2057
aI1567
aI1121
aI1710
aI1940
aI1228
aI262
aI1832
aI157
aI630
aI3067
aI2957
aI1394
aI2003
aI999
aI2173
aI1981
aI598
aI2824
aI121
aI1278
aI1322
aI2315
aI379
aI2798
aI2497
aI1757
aI876
aI507
aI868
aI1741
aI2071
aI214
aI2273
aI2627
aI1735
aI1406
aI373
aI1825
aI1932
aI739
aI2817
aI666
aI2225
aI2278
aI2838
aI2230
aI1588
aI835
aI2750
aI2976
aI2894
aI241
aI169
aI2849
aI2333
aI763
aI2720
aI1423
aI1395
aI327
aI959
aI909
aI1627
aI608
aI1867
aI461
aI313
aI829
aI2572
aI2511
aI2879
aI2638
aI1672
aI1910
aI1974
aI2949
aI2749
aI989
aI817
aI2180
aI342
aI1695
aI544
aI2464
aI432
aI2696
aI728
aI555
aI1676
aI2573
aI1681
aI1137
aI2281
aI2567
aI98
aI73
aI1732
aI1047
aI408
aI1668
aI2677
aI937
aI1198
aI2904
aI879
aI278
aI1992
aI2547
aI2918
aI2420
aI2008
aI2084
aI668
aI1165
aI2247
aI2681
aI1236
aI1978
aI1531
aI1844
aI255
aI570
aI2616
aI706
aI553
aI2774
aI1847
aI2909
aI1758
aa(lp6
I628
aI276
aI1772
aI2778
aI966
aI677
aI2211
aI582
aI1360
aI795
aI1422
aI168
aI321
aI2537
aI2343
aI1419
aI3016
aI2846
aI2603
aI2898
aI1308
aI2525
aI2987
aI1100
aI536
aI2680
aI2936
aI1214
aI1503
aI1003
aI1496
aI2361
aI1075
aI2283
aI2074
aI144
aI516
aI662
aI1673
aI257
aI1337
aI2277
aI563
aI2873
aI2268
aI100
aI2926
aI2432
aI1900
aI2322
aI3061
aI469
aI803
aI2747
aI1577
aI814
aI2375
aI47
aI1993
aI63
aI2140
aI2858
aI539
aI409
aI722
aI1287
aI613
aI2896
aI1762
aI1552
aI713
aI2892
aI2224
aI25
aI648
aI2143
aI756
aI1642
aI1497
aI182
aI1436
aI3
aI2456
aI1131
aI1943
aI17
aI82
aI1442
aI2386
aI2276
aI2435
aI1623
aI1730
aI1077
aI2164
aI2083
aI2531
aI1683
aI2707
aI792
aI2288
aI117
aI1425
aI778
aI690
aI1145
aI2253
aI2837
aI1067
aI1806
aI1237
aI1374
aI2418
aI471
aI1011
aI89
aI196
aI329
aI2137
aI1914
aI2733
aI2011
aI1073
aI65
aI2245
aI1490
aI1116
aI1548
aI2012
aI1032
aI222
aI627
aI1309
aI231
aI2024
aI1001
aI1750
aI2571
aI2460
aI2126
aI1955
aI1197
aI1243
aI2217
aI2927
aI1518
aI2931
aI1583
aI2969
aI399
aI2872
aI2721
aI681
aI2912
aI2540
aI2162
aI1807
aI280
aI1903
aI427
aI1232
aI1763
aI2078
aI992
aI1370
aI2580
aI1019
aI203
aI216
aI1135
aI2254
aI1325
aI2060
aI1551
aI2642
aI637
aI2450
aI2263
aI2445
aI1678
aI2589
aI2092
aI458
aI2751
aI857
aI1466
aI2328
aI1076
aI2523
aI2
aI1830
aI768
aI1238
aI108
aI1433
aI603
aI770
aI1230
aI1902
aI1350
aI1769
aI2186
aI1179
aI2639
aI1650
aI1407
aI1437
aI3086
aI1738
aI970
aI1335
aI148
aI1987
aI2021
aI2724
aI1926
aI2629
aI650
aI2651
aI3003
aI1393
aI2203
aI2665
aI2449
aI1363
aI1399
aI2802
aI1435
aI2366
aI390
aI1200
aI1970
aI2344
aI435
aI141
aI2622
aI2779
aI912
aI1156
aI346
aI1136
aI1522
aI2061
aI304
aI2914
aI2465
aI2981
aI367
aI3060
aI626
aI2044
aI256
aI747
aI2617
aI985
aI990
aI1029
aI704
aI2899
aI509
aI665
aI1717
aI2515
aI205
aI381
aI1217
aI2637
aI780
aI1743
aI307
aI1723
aI442
aI2807
aI2542
aI550
aI459
aI3056
aI2183
aI2735
aI2851
aI1883
aI1612
aI1253
aI279
aI230
aI1592
aI519
aI2223
aI1776
aI245
aI1105
aI465
aI2579
aI1721
aI2108
aI2535
aI663
aI2314
aI1155
aI1649
aI542
aI1421
aI805
aI206
aI1471
aI1273
aI495
aI762
aI1897
aa(lp7
I2876
aI2426
aI2911
aI3045
aI2382
aI1256
aI1142
aI1148
aI3012
aI782
aI767
aI657
aI1191
aI1132
aI939
aI1233
aI773
aI2662
aI227
aI1797
aI987
aI2204
aI2964
aI2780
aI2626
aI1044
aI2538
aI316
aI1245
aI2147
aI1469
aI233
aI1405
aI299
aI467
aI339
aI2037
aI334
aI2718
aI1961
aI2975
aI2510
aI2107
aI1033
aI2566
aI2038
aI873
aI396
aI2968
aI2280
aI2177
aI2320
aI2504
aI1575
aI11
aI2999
aI2922
aI658
aI333
aI1521
aI2650
aI2613
aI671
aI68
aI433
aI3076
aI2168
aI2070
aI2742
aI3037
aI1543
aI685
aI1554
aI1555
aI511
aI1358
aI133
aI67
aI3006
aI1383
aI1429
aI2337
aI1604
aI794
aI64
aI1111
aI1784
aI2934
aI1416
aI2179
aI2302
aI2565
aI470
aI479
aI799
aI2962
aI1321
aI2796
aI2373
aI881
aI2659
aI147
aI576
aI581
aI1026
aI1478
aI827
aI2614
aI1307
aI1571
aI2348
aI2103
aI1074
aI352
aI562
aI2836
aI382
aI3063
aI1934
aI589
aI1737
aI425
aI1908
aI2487
aI2771
aI32
aI107
aI744
aI1163
aI693
aI126
aI702
aI2018
aI1061
aI1603
aI2792
aI1276
aI2310
aI420
aI2396
aI104
aI1130
aI2559
aI1353
aI1402
aI721
aI1341
aI710
aI2290
aI2192
aI2505
aI2340
aI890
aI925
aI375
aI145
aI2581
aI2996
aI619
aI377
aI354
aI1687
aI344
aI1448
aI798
aI267
aI2684
aI954
aI2228
aI2106
aI2115
aI2308
aI2513
aI1304
aI2544
aI2153
aI1355
aI683
aI1727
aI180
aI2094
aI3023
aI1882
aI2294
aI2708
aI2151
aI2127
aI2299
aI485
aI1919
aI2470
aI1408
aI1820
aI1160
aI1454
aI1773
aI1314
aI1817
aI1886
aI1872
aI2973
aI1861
aI2496
aI181
aI129
aI875
aI779
aI737
aI2764
aI2890
aI930
aI1035
aI353
aI1582
aI1924
aI1231
aI2958
aI595
aI1012
aI1871
aI2149
aI823
aI1529
aI797
aI1473
aI771
aI90
aI376
aI1969
aI154
aI437
aI1648
aI902
aI2403
aI1123
aI198
aI2992
aI2835
aI2425
aI46
aI2562
aI2486
aI497
aI2191
aI366
aI3015
aI2371
aI2408
aI2974
aI2148
aI83
aI2549
aI2195
aI2860
aI3048
aI1249
aI1729
aI1169
aI707
aI2352
aI1745
aI1280
aI2541
aI1398
aI370
aI204
aI931
aI2775
aI1141
aI1899
aI2238
aI653
aI2489
aI1068
aI552
aI533
aI3013
aI674
aI2117
aI2483
aI2965
aI36
aI1682
aI240
aI1785
aI167
aI760
aI2500
aI237
aI1261
aI1502
aI2657
aI1275
aI2688
aI1509
aI1010
aI667
aI944
aI146
aI2473
aI574
aI2966
aI1686
aI606
aI2080
aI1511
aI518
aI1477
aI2514
aa(lp8
I2081
aI697
aI1369
aI1916
aI3035
aI2190
aI836
aI758
aI2606
aI2433
aI2726
aI171
aI2252
aI2530
aI438
aI19
aI322
aI2374
aI2296
aI2748
aI711
aI1051
aI297
aI2050
aI551
aI1561
aI629
aI1714
aI1726
aI1193
aI1850
aI2216
aI5
aI97
aI1293
aI1241
aI1443
aI2459
aI649
aI2443
aI160
aI286
aI1703
aI2067
aI2713
aI2806
aI1834
aI2889
aI1320
aI2130
aI534
aI936
aI2118
aI522
aI2809
aI1538
aI3014
aI2360
aI1838
aI2073
aI2940
aI1836
aI858
aI2568
aI1564
aI1707
aI2051
aI2768
aI2326
aI1049
aI1269
aI225
aI787
aI1484
aI874
aI410
aI1091
aI1693
aI2412
aI1272
aI2716
aI641
aI512
aI1002
aI1028
aI105
aI935
aI2363
aI454
aI1464
aI2600
aI1112
aI2249
aI132
aI501
aI2577
aI751
aI2069
aI788
aI1441
aI673
aI2793
aI2655
aI1734
aI569
aI2671
aI1643
aI885
aI2335
aI1254
aI2776
aI393
aI2831
aI1190
aI2197
aI801
aI3007
aI1711
aI1630
aI2494
aI301
aI1279
aI640
aI2804
aI620
aI1347
aI2410
aI968
aI825
aI1218
aI2091
aI165
aI1361
aI1665
aI1373
aI1966
aI2970
aI2285
aI2948
aI199
aI2439
aI2990
aI242
aI3046
aI403
aI134
aI1474
aI2227
aI822
aI1877
aI436
aI1815
aI1781
aI1666
aI1958
aI2731
aI952
aI1616
aI75
aI2342
aI1027
aI1090
aI1542
aI777
aI217
aI473
aI1247
aI188
aI635
aI1114
aI3009
aI336
aI897
aI752
aI993
aI1523
aI2695
aI1043
aI596
aI1440
aI2233
aI1185
aI1485
aI1199
aI1189
aI915
aI43
aI2005
aI543
aI261
aI1159
aI2937
aI2502
aI2821
aI2754
aI1246
aI292
aI2767
aI235
aI450
aI407
aI2794
aI1701
aI682
aI3050
aI258
aI1794
aI1412
aI1670
aI1060
aI2576
aI687
aI1079
aI560
aI265
aI2043
aI2719
aI1688
aI1283
aI1004
aI1045
aI766
aI853
aI2953
aI2387
aI1042
aI882
aI510
aI2789
aI2033
aI1826
aI445
aI1336
aI602
aI919
aI824
aI1574
aI371
aI2921
aI1486
aI1391
aI2174
aI2214
aI2417
aI2444
aI880
aI714
aI2591
aI2400
aI850
aI1911
aI209
aI1498
aI905
aI2709
aI1986
aI2783
aI2852
aI1081
aI2986
aI2552
aI1712
aI969
aI2763
aI2667
aI554
aI243
aI1052
aI3075
aI3055
aI1936
aI3049
aI549
aI431
aI1851
aI1054
aI1364
aI369
aI1767
aI786
aI597
aI2035
aI2172
aI1746
aI4
aI1614
aI841
aI1007
aI2507
aI2390
aI2723
aI2205
aI2139
aI112
aI513
aI3041
aI207
aI2219
aI1752
aI2399
aI906
aI1009
aI1016
aI2822
aI2527
aI2053
aI1512
aI2123
aI1718
aa(lp9
I605
aI776
aI451
aI1698
aI123
aI2218
aI93
aI1796
aI1170
aI2311
aI1149
aI1297
aI1515
aI1654
aI2370
aI2235
aI2570
aI2930
aI1684
aI2578
aI444
aI947
aI449
aI2422
aI2859
aI3036
aI2448
aI1572
aI2632
aI385
aI1848
aI1150
aI2944
aI1709
aI389
aI325
aI914
aI1083
aI2134
aI1593
aI1346
aI1211
aI380
aI2722
aI2643
aI1770
aI2950
aI324
aI772
aI2286
aI2030
aI892
aI1606
aI1884
aI1795
aI1532
aI2434
aI575
aI415
aI561
aI719
aI1708
aI1801
aI2369
aI69
aI530
aI1080
aI746
aI567
aI843
aI941
aI1312
aI1041
aI904
aI2526
aI92
aI2255
aI1102
aI357
aI2357
aI187
aI488
aI305
aI282
aI808
aI2683
aI2125
aI3090
aI2844
aI2282
aI34
aI2026
aI503
aI1107
aI893
aI2979
aI1671
aI984
aI1720
aI1143
aI3052
aI572
aI2919
aI1557
aI749
aI1348
aI387
aI109
aI1713
aI1933
aI1857
aI2482
aI584
aI1862
aI1809
aI1008
aI1669
aI2672
aI110
aI2956
aI1188
aI1480
aI860
aI1800
aI1874
aI1157
aI1661
aI531
aI1653
aI2595
aI950
aI846
aI1294
aI1942
aI2761
aI1315
aI1893
aI3078
aI24
aI1947
aI1085
aI1092
aI1922
aI2842
aI623
aI1828
aI1371
aI3038
aI2599
aI2874
aI2885
aI2881
aI1318
aI298
aI1397
aI201
aI290
aI651
aI2877
aI525
aI2466
aI1024
aI2000
aI1545
aI9
aI978
aI2349
aI2221
aI2182
aI1046
aI1104
aI1030
aI2756
aI796
aI1177
aI2692
aI2897
aI392
aI529
aI1789
aI3010
aI2155
aI2620
aI997
aI1600
aI644
aI1977
aI191
aI2239
aI2330
aI2942
aI2347
aI2886
aI1119
aI317
aI2185
aI828
aI2939
aI18
aI2077
aI2087
aI899
aI636
aI2376
aI2673
aI1115
aI2685
aI398
aI833
aI1662
aI2141
aI800
aI2415
aI2765
aI1240
aI1365
aI2907
aI372
aI2947
aI883
aI965
aI440
aI1751
aI781
aI1887
aI1453
aI2131
aI2017
aI2635
aI1153
aI2365
aI1268
aI496
aI2882
aI3092
aI1212
aI1
aI1696
aI1385
aI1221
aI2222
aI1449
aI864
aI247
aI360
aI1176
aI1895
aI1022
aI91
aI2469
aI1951
aI1184
aI1584
aI2401
aI2744
aI922
aI1607
aI2840
aI2701
aI283
aI1935
aI1479
aI120
aI2316
aI12
aI2476
aI1338
aI2697
aI2193
aI2303
aI2075
aI2594
aI40
aI2649
aI1120
aI1439
aI1444
aI419
aI1628
aI696
aI2790
aI1791
aI1573
aI866
aI2305
aI2389
aI2355
aI718
aI1225
aI2555
aI1704
aI2484
aI1301
aI2729
aI2624
aI7
aI3017
aI1659
aI384
aI1388
aI140
aI338
aI609
aI103
aI1818
aI1086
aI349
aI489
aI2943
aa(lp10
I15
aI20
aI27
aI31
aI37
aI44
aI51
aI60
aI70
aI71
aI72
aI76
aI77
aI79
aI87
aI114
aI122
aI137
aI138
aI155
aI156
aI158
aI163
aI174
aI175
aI177
aI179
aI186
aI200
aI213
aI223
aI224
aI232
aI244
aI251
aI253
aI259
aI260
aI263
aI269
aI291
aI296
aI340
aI341
aI358
aI363
aI391
aI395
aI402
aI416
aI422
aI423
aI424
aI428
aI447
aI453
aI463
aI476
aI494
aI502
aI504
aI515
aI517
aI526
aI545
aI558
aI566
aI571
aI588
aI592
aI594
aI610
aI617
aI621
aI645
aI708
aI712
aI715
aI723
aI725
aI730
aI738
aI750
aI764
aI769
aI774
aI775
aI790
aI791
aI815
aI818
aI831
aI838
aI839
aI872
aI901
aI908
aI918
aI924
aI929
aI938
aI961
aI964
aI971
aI973
aI977
aI980
aI986
aI994
aI1038
aI1071
aI1093
aI1101
aI1103
aI1108
aI1113
aI1117
aI1124
aI1128
aI1147
aI1151
aI1167
aI1180
aI1206
aI1219
aI1220
aI1226
aI1252
aI1284
aI1291
aI1292
aI1330
aI1345
aI1379
aI1382
aI1386
aI1389
aI1400
aI1413
aI1427
aI1431
aI1457
aI1481
aI1482
aI1483
aI1489
aI1501
aI1506
aI1507
aI1528
aI1534
aI1544
aI1546
aI1553
aI1558
aI1560
aI1565
aI1580
aI1585
aI1597
aI1605
aI1613
aI1625
aI1632
aI1660
aI1663
aI1685
aI1690
aI1697
aI1706
aI1725
aI1728
aI1733
aI1740
aI1753
aI1754
aI1765
aI1771
aI1786
aI1802
aI1810
aI1812
aI1813
aI1823
aI1845
aI1846
aI1852
aI1855
aI1860
aI1875
aI1881
aI1891
aI1894
aI1898
aI1901
aI1904
aI1906
aI1941
aI1946
aI1949
aI1968
aI1979
aI1983
aI1985
aI1999
aI2006
aI2013
aI2016
aI2028
aI2031
aI2042
aI2063
aI2065
aI2085
aI2086
aI2088
aI2089
aI2099
aI2104
aI2112
aI2114
aI2119
aI2129
aI2135
aI2138
aI2163
aI2171
aI2202
aI2215
aI2248
aI2256
aI2264
aI2266
aI2275
aI2284
aI2287
aI2304
aI2334
aI2336
aI2356
aI2368
aI2383
aI2405
aI2430
aI2436
aI2437
aI2442
aI2453
aI2457
aI2462
aI2472
aI2475
aI2488
aI2491
aI2492
aI2516
aI2520
aI2521
aI2528
aI2539
aI2545
aI2554
aI2575
aI2583
aI2585
aI2588
aI2592
aI2615
aI2634
aI2648
aI2660
aI2670
aI2679
aI2693
aI2694
aI2734
aI2752
aI2757
aI2772
aI2777
aI2784
aI2810
aI2812
aI2826
aI2834
aI2850
aI2857
aI2862
aI2865
aI2870
aI2883
aI2888
aI2895
aI2906
aI2917
aI2928
aI2959
aI2963
aI2967
aI2972
aI2984
aI2994
aI2998
aI3002
aI3004
aI3005
aI3021
aI3044
aI3053
aI3058
aI3071
aI3080
aI3084
aa.